
SimpleVania.elf:     file format elf32-avr

Sections:
Idx Name          Size      VMA       LMA       File off  Algn
  0 .data         00000524  00800100  00003874  00003908  2**0
                  CONTENTS, ALLOC, LOAD, DATA
  1 .text         00003874  00000000  00000000  00000094  2**1
                  CONTENTS, ALLOC, LOAD, READONLY, CODE
  2 .bss          000000b0  00800624  00800624  00003e2c  2**0
                  ALLOC
  3 .stab         000006cc  00000000  00000000  00003e2c  2**2
                  CONTENTS, READONLY, DEBUGGING
  4 .stabstr      00000097  00000000  00000000  000044f8  2**0
                  CONTENTS, READONLY, DEBUGGING
  5 .comment      0000002f  00000000  00000000  0000458f  2**0
                  CONTENTS, READONLY
  6 .debug_aranges 00000150  00000000  00000000  000045be  2**0
                  CONTENTS, READONLY, DEBUGGING
  7 .debug_info   00000d35  00000000  00000000  0000470e  2**0
                  CONTENTS, READONLY, DEBUGGING
  8 .debug_abbrev 000002d2  00000000  00000000  00005443  2**0
                  CONTENTS, READONLY, DEBUGGING
  9 .debug_line   00001883  00000000  00000000  00005715  2**0
                  CONTENTS, READONLY, DEBUGGING
 10 .debug_frame  00000544  00000000  00000000  00006f98  2**2
                  CONTENTS, READONLY, DEBUGGING
 11 .debug_str    000006a2  00000000  00000000  000074dc  2**0
                  CONTENTS, READONLY, DEBUGGING
 12 .debug_loc    00000b03  00000000  00000000  00007b7e  2**0
                  CONTENTS, READONLY, DEBUGGING
 13 .debug_ranges 00000140  00000000  00000000  00008681  2**0
                  CONTENTS, READONLY, DEBUGGING

Disassembly of section .text:

00000000 <__vectors>:
       0:	6f c0       	rjmp	.+222    	; 0xe0 <__ctors_end>
       2:	00 00       	nop
       4:	8c c0       	rjmp	.+280    	; 0x11e <__bad_interrupt>
       6:	00 00       	nop
       8:	8a c0       	rjmp	.+276    	; 0x11e <__bad_interrupt>
       a:	00 00       	nop
       c:	88 c0       	rjmp	.+272    	; 0x11e <__bad_interrupt>
       e:	00 00       	nop
      10:	86 c0       	rjmp	.+268    	; 0x11e <__bad_interrupt>
      12:	00 00       	nop
      14:	84 c0       	rjmp	.+264    	; 0x11e <__bad_interrupt>
      16:	00 00       	nop
      18:	82 c0       	rjmp	.+260    	; 0x11e <__bad_interrupt>
      1a:	00 00       	nop
      1c:	80 c0       	rjmp	.+256    	; 0x11e <__bad_interrupt>
      1e:	00 00       	nop
      20:	7e c0       	rjmp	.+252    	; 0x11e <__bad_interrupt>
      22:	00 00       	nop
      24:	7c c0       	rjmp	.+248    	; 0x11e <__bad_interrupt>
      26:	00 00       	nop
      28:	7a c0       	rjmp	.+244    	; 0x11e <__bad_interrupt>
      2a:	00 00       	nop
      2c:	78 c0       	rjmp	.+240    	; 0x11e <__bad_interrupt>
      2e:	00 00       	nop
      30:	76 c0       	rjmp	.+236    	; 0x11e <__bad_interrupt>
      32:	00 00       	nop
      34:	ca c1       	rjmp	.+916    	; 0x3ca <__vector_13>
      36:	00 00       	nop
      38:	72 c0       	rjmp	.+228    	; 0x11e <__bad_interrupt>
      3a:	00 00       	nop
      3c:	70 c0       	rjmp	.+224    	; 0x11e <__bad_interrupt>
      3e:	00 00       	nop
      40:	6e c0       	rjmp	.+220    	; 0x11e <__bad_interrupt>
      42:	00 00       	nop
      44:	6c c0       	rjmp	.+216    	; 0x11e <__bad_interrupt>
      46:	00 00       	nop
      48:	6a c0       	rjmp	.+212    	; 0x11e <__bad_interrupt>
      4a:	00 00       	nop
      4c:	68 c0       	rjmp	.+208    	; 0x11e <__bad_interrupt>
      4e:	00 00       	nop
      50:	66 c0       	rjmp	.+204    	; 0x11e <__bad_interrupt>
      52:	00 00       	nop
      54:	64 c0       	rjmp	.+200    	; 0x11e <__bad_interrupt>
      56:	00 00       	nop
      58:	62 c0       	rjmp	.+196    	; 0x11e <__bad_interrupt>
      5a:	00 00       	nop
      5c:	60 c0       	rjmp	.+192    	; 0x11e <__bad_interrupt>
      5e:	00 00       	nop
      60:	5e c0       	rjmp	.+188    	; 0x11e <__bad_interrupt>
      62:	00 00       	nop
      64:	5c c0       	rjmp	.+184    	; 0x11e <__bad_interrupt>
      66:	00 00       	nop
      68:	5a c0       	rjmp	.+180    	; 0x11e <__bad_interrupt>
      6a:	00 00       	nop
      6c:	58 c0       	rjmp	.+176    	; 0x11e <__bad_interrupt>
      6e:	00 00       	nop
      70:	56 c0       	rjmp	.+172    	; 0x11e <__bad_interrupt>
      72:	00 00       	nop
      74:	54 c0       	rjmp	.+168    	; 0x11e <__bad_interrupt>
      76:	00 00       	nop
      78:	52 c0       	rjmp	.+164    	; 0x11e <__bad_interrupt>
      7a:	00 00       	nop
      7c:	50 c0       	rjmp	.+160    	; 0x11e <__bad_interrupt>
      7e:	00 00       	nop
      80:	4e c0       	rjmp	.+156    	; 0x11e <__bad_interrupt>
      82:	00 00       	nop
      84:	4c c0       	rjmp	.+152    	; 0x11e <__bad_interrupt>
      86:	00 00       	nop
      88:	4a c0       	rjmp	.+148    	; 0x11e <__bad_interrupt>
      8a:	00 00       	nop
      8c:	7c 17       	cp	r23, r28
      8e:	19 18       	sub	r1, r9
      90:	3c 18       	sub	r3, r12
      92:	5e 18       	sub	r5, r14
      94:	6a 18       	sub	r6, r10
      96:	88 18       	sub	r8, r8
      98:	a2 18       	sub	r10, r2
      9a:	a5 18       	sub	r10, r5
      9c:	a9 18       	sub	r10, r9
      9e:	ad 18       	sub	r10, r13
      a0:	b1 18       	sub	r11, r1
      a2:	b9 18       	sub	r11, r9
      a4:	bd 18       	sub	r11, r13
      a6:	c0 18       	sub	r12, r0
      a8:	c6 18       	sub	r12, r6
      aa:	95 18       	sub	r9, r5
      ac:	9a 18       	sub	r9, r10
      ae:	9f 18       	sub	r9, r15
      b0:	90 18       	sub	r9, r0
      b2:	8b 18       	sub	r8, r11
      b4:	b5 18       	sub	r11, r5
      b6:	dd 18       	sub	r13, r13
      b8:	e6 18       	sub	r14, r6
      ba:	ec 18       	sub	r14, r12
      bc:	6c 19       	sub	r22, r12
      be:	ef 18       	sub	r14, r15
      c0:	f2 18       	sub	r15, r2
      c2:	6c 19       	sub	r22, r12
      c4:	0e 19       	sub	r16, r14
      c6:	18 19       	sub	r17, r8
      c8:	25 19       	sub	r18, r5
      ca:	37 19       	sub	r19, r7
      cc:	5b 19       	sub	r21, r11
      ce:	6c 19       	sub	r22, r12
      d0:	68 19       	sub	r22, r8
      d2:	6c 19       	sub	r22, r12
      d4:	05 19       	sub	r16, r5
      d6:	08 19       	sub	r16, r8
      d8:	0b 19       	sub	r16, r11
      da:	f5 18       	sub	r15, r5
      dc:	fd 18       	sub	r15, r13
      de:	49 19       	sub	r20, r9

000000e0 <__ctors_end>:
      e0:	11 24       	eor	r1, r1
      e2:	1f be       	out	0x3f, r1	; 63
      e4:	cf ef       	ldi	r28, 0xFF	; 255
      e6:	d0 e4       	ldi	r29, 0x40	; 64
      e8:	de bf       	out	0x3e, r29	; 62
      ea:	cd bf       	out	0x3d, r28	; 61

000000ec <__do_copy_data>:
      ec:	16 e0       	ldi	r17, 0x06	; 6
      ee:	a0 e0       	ldi	r26, 0x00	; 0
      f0:	b1 e0       	ldi	r27, 0x01	; 1
      f2:	e4 e7       	ldi	r30, 0x74	; 116
      f4:	f8 e3       	ldi	r31, 0x38	; 56
      f6:	00 e0       	ldi	r16, 0x00	; 0
      f8:	0b bf       	out	0x3b, r16	; 59
      fa:	02 c0       	rjmp	.+4      	; 0x100 <__do_copy_data+0x14>
      fc:	07 90       	elpm	r0, Z+
      fe:	0d 92       	st	X+, r0
     100:	a4 32       	cpi	r26, 0x24	; 36
     102:	b1 07       	cpc	r27, r17
     104:	d9 f7       	brne	.-10     	; 0xfc <__do_copy_data+0x10>

00000106 <__do_clear_bss>:
     106:	26 e0       	ldi	r18, 0x06	; 6
     108:	a4 e2       	ldi	r26, 0x24	; 36
     10a:	b6 e0       	ldi	r27, 0x06	; 6
     10c:	01 c0       	rjmp	.+2      	; 0x110 <.do_clear_bss_start>

0000010e <.do_clear_bss_loop>:
     10e:	1d 92       	st	X+, r1

00000110 <.do_clear_bss_start>:
     110:	a4 3d       	cpi	r26, 0xD4	; 212
     112:	b2 07       	cpc	r27, r18
     114:	e1 f7       	brne	.-8      	; 0x10e <.do_clear_bss_loop>
     116:	0e 94 d3 19 	call	0x33a6	; 0x33a6 <main>
     11a:	0c 94 38 1c 	jmp	0x3870	; 0x3870 <_exit>

0000011e <__bad_interrupt>:
     11e:	70 cf       	rjmp	.-288    	; 0x0 <__vectors>

00000120 <SetLongREDBit>:
	SREG |= 0x80;	// 0x80: 1000000
}

void TimerOff() {
	TCCR1B 	= 0x00; // bit3bit2bit1bit0=0000: timer off
}
     120:	cf 93       	push	r28
     122:	df 93       	push	r29
     124:	00 d0       	rcall	.+0      	; 0x126 <SetLongREDBit+0x6>
     126:	00 d0       	rcall	.+0      	; 0x128 <SetLongREDBit+0x8>
     128:	00 d0       	rcall	.+0      	; 0x12a <SetLongREDBit+0xa>
     12a:	cd b7       	in	r28, 0x3d	; 61
     12c:	de b7       	in	r29, 0x3e	; 62
     12e:	69 83       	std	Y+1, r22	; 0x01
     130:	7a 83       	std	Y+2, r23	; 0x02
     132:	8b 83       	std	Y+3, r24	; 0x03
     134:	9c 83       	std	Y+4, r25	; 0x04
     136:	4d 83       	std	Y+5, r20	; 0x05
     138:	2e 83       	std	Y+6, r18	; 0x06
     13a:	8e 81       	ldd	r24, Y+6	; 0x06
     13c:	88 23       	and	r24, r24
     13e:	c1 f0       	breq	.+48     	; 0x170 <SetLongREDBit+0x50>
     140:	8d 81       	ldd	r24, Y+5	; 0x05
     142:	28 2f       	mov	r18, r24
     144:	30 e0       	ldi	r19, 0x00	; 0
     146:	80 e0       	ldi	r24, 0x00	; 0
     148:	91 e0       	ldi	r25, 0x01	; 1
     14a:	02 c0       	rjmp	.+4      	; 0x150 <SetLongREDBit+0x30>
     14c:	88 0f       	add	r24, r24
     14e:	99 1f       	adc	r25, r25
     150:	2a 95       	dec	r18
     152:	e2 f7       	brpl	.-8      	; 0x14c <SetLongREDBit+0x2c>
     154:	9c 01       	movw	r18, r24
     156:	44 27       	eor	r20, r20
     158:	37 fd       	sbrc	r19, 7
     15a:	40 95       	com	r20
     15c:	54 2f       	mov	r21, r20
     15e:	89 81       	ldd	r24, Y+1	; 0x01
     160:	9a 81       	ldd	r25, Y+2	; 0x02
     162:	ab 81       	ldd	r26, Y+3	; 0x03
     164:	bc 81       	ldd	r27, Y+4	; 0x04
     166:	82 2b       	or	r24, r18
     168:	93 2b       	or	r25, r19
     16a:	a4 2b       	or	r26, r20
     16c:	b5 2b       	or	r27, r21
     16e:	19 c0       	rjmp	.+50     	; 0x1a2 <SetLongREDBit+0x82>
     170:	8d 81       	ldd	r24, Y+5	; 0x05
     172:	28 2f       	mov	r18, r24
     174:	30 e0       	ldi	r19, 0x00	; 0
     176:	80 e0       	ldi	r24, 0x00	; 0
     178:	91 e0       	ldi	r25, 0x01	; 1
     17a:	02 c0       	rjmp	.+4      	; 0x180 <SetLongREDBit+0x60>
     17c:	88 0f       	add	r24, r24
     17e:	99 1f       	adc	r25, r25
     180:	2a 95       	dec	r18
     182:	e2 f7       	brpl	.-8      	; 0x17c <SetLongREDBit+0x5c>
     184:	80 95       	com	r24
     186:	90 95       	com	r25
     188:	9c 01       	movw	r18, r24
     18a:	44 27       	eor	r20, r20
     18c:	37 fd       	sbrc	r19, 7
     18e:	40 95       	com	r20
     190:	54 2f       	mov	r21, r20
     192:	89 81       	ldd	r24, Y+1	; 0x01
     194:	9a 81       	ldd	r25, Y+2	; 0x02
     196:	ab 81       	ldd	r26, Y+3	; 0x03
     198:	bc 81       	ldd	r27, Y+4	; 0x04
     19a:	82 23       	and	r24, r18
     19c:	93 23       	and	r25, r19
     19e:	a4 23       	and	r26, r20
     1a0:	b5 23       	and	r27, r21
     1a2:	bc 01       	movw	r22, r24
     1a4:	cd 01       	movw	r24, r26
     1a6:	26 96       	adiw	r28, 0x06	; 6
     1a8:	0f b6       	in	r0, 0x3f	; 63
     1aa:	f8 94       	cli
     1ac:	de bf       	out	0x3e, r29	; 62
     1ae:	0f be       	out	0x3f, r0	; 63
     1b0:	cd bf       	out	0x3d, r28	; 61
     1b2:	df 91       	pop	r29
     1b4:	cf 91       	pop	r28
     1b6:	08 95       	ret

000001b8 <SetLongGREENBit>:
     1b8:	cf 93       	push	r28
     1ba:	df 93       	push	r29
     1bc:	00 d0       	rcall	.+0      	; 0x1be <SetLongGREENBit+0x6>
     1be:	00 d0       	rcall	.+0      	; 0x1c0 <SetLongGREENBit+0x8>
     1c0:	00 d0       	rcall	.+0      	; 0x1c2 <SetLongGREENBit+0xa>
     1c2:	cd b7       	in	r28, 0x3d	; 61
     1c4:	de b7       	in	r29, 0x3e	; 62
     1c6:	69 83       	std	Y+1, r22	; 0x01
     1c8:	7a 83       	std	Y+2, r23	; 0x02
     1ca:	8b 83       	std	Y+3, r24	; 0x03
     1cc:	9c 83       	std	Y+4, r25	; 0x04
     1ce:	4d 83       	std	Y+5, r20	; 0x05
     1d0:	2e 83       	std	Y+6, r18	; 0x06
     1d2:	8e 81       	ldd	r24, Y+6	; 0x06
     1d4:	88 23       	and	r24, r24
     1d6:	c1 f0       	breq	.+48     	; 0x208 <SetLongGREENBit+0x50>
     1d8:	8d 81       	ldd	r24, Y+5	; 0x05
     1da:	28 2f       	mov	r18, r24
     1dc:	30 e0       	ldi	r19, 0x00	; 0
     1de:	81 e0       	ldi	r24, 0x01	; 1
     1e0:	90 e0       	ldi	r25, 0x00	; 0
     1e2:	02 c0       	rjmp	.+4      	; 0x1e8 <SetLongGREENBit+0x30>
     1e4:	88 0f       	add	r24, r24
     1e6:	99 1f       	adc	r25, r25
     1e8:	2a 95       	dec	r18
     1ea:	e2 f7       	brpl	.-8      	; 0x1e4 <SetLongGREENBit+0x2c>
     1ec:	9c 01       	movw	r18, r24
     1ee:	44 27       	eor	r20, r20
     1f0:	37 fd       	sbrc	r19, 7
     1f2:	40 95       	com	r20
     1f4:	54 2f       	mov	r21, r20
     1f6:	89 81       	ldd	r24, Y+1	; 0x01
     1f8:	9a 81       	ldd	r25, Y+2	; 0x02
     1fa:	ab 81       	ldd	r26, Y+3	; 0x03
     1fc:	bc 81       	ldd	r27, Y+4	; 0x04
     1fe:	82 2b       	or	r24, r18
     200:	93 2b       	or	r25, r19
     202:	a4 2b       	or	r26, r20
     204:	b5 2b       	or	r27, r21
     206:	19 c0       	rjmp	.+50     	; 0x23a <SetLongGREENBit+0x82>
     208:	8d 81       	ldd	r24, Y+5	; 0x05
     20a:	28 2f       	mov	r18, r24
     20c:	30 e0       	ldi	r19, 0x00	; 0
     20e:	81 e0       	ldi	r24, 0x01	; 1
     210:	90 e0       	ldi	r25, 0x00	; 0
     212:	02 c0       	rjmp	.+4      	; 0x218 <SetLongGREENBit+0x60>
     214:	88 0f       	add	r24, r24
     216:	99 1f       	adc	r25, r25
     218:	2a 95       	dec	r18
     21a:	e2 f7       	brpl	.-8      	; 0x214 <SetLongGREENBit+0x5c>
     21c:	80 95       	com	r24
     21e:	90 95       	com	r25
     220:	9c 01       	movw	r18, r24
     222:	44 27       	eor	r20, r20
     224:	37 fd       	sbrc	r19, 7
     226:	40 95       	com	r20
     228:	54 2f       	mov	r21, r20
     22a:	89 81       	ldd	r24, Y+1	; 0x01
     22c:	9a 81       	ldd	r25, Y+2	; 0x02
     22e:	ab 81       	ldd	r26, Y+3	; 0x03
     230:	bc 81       	ldd	r27, Y+4	; 0x04
     232:	82 23       	and	r24, r18
     234:	93 23       	and	r25, r19
     236:	a4 23       	and	r26, r20
     238:	b5 23       	and	r27, r21
     23a:	bc 01       	movw	r22, r24
     23c:	cd 01       	movw	r24, r26
     23e:	26 96       	adiw	r28, 0x06	; 6
     240:	0f b6       	in	r0, 0x3f	; 63
     242:	f8 94       	cli
     244:	de bf       	out	0x3e, r29	; 62
     246:	0f be       	out	0x3f, r0	; 63
     248:	cd bf       	out	0x3d, r28	; 61
     24a:	df 91       	pop	r29
     24c:	cf 91       	pop	r28
     24e:	08 95       	ret

00000250 <SetLongBLUEBit>:
     250:	cf 93       	push	r28
     252:	df 93       	push	r29
     254:	00 d0       	rcall	.+0      	; 0x256 <SetLongBLUEBit+0x6>
     256:	00 d0       	rcall	.+0      	; 0x258 <SetLongBLUEBit+0x8>
     258:	00 d0       	rcall	.+0      	; 0x25a <SetLongBLUEBit+0xa>
     25a:	cd b7       	in	r28, 0x3d	; 61
     25c:	de b7       	in	r29, 0x3e	; 62
     25e:	69 83       	std	Y+1, r22	; 0x01
     260:	7a 83       	std	Y+2, r23	; 0x02
     262:	8b 83       	std	Y+3, r24	; 0x03
     264:	9c 83       	std	Y+4, r25	; 0x04
     266:	4d 83       	std	Y+5, r20	; 0x05
     268:	2e 83       	std	Y+6, r18	; 0x06
     26a:	8e 81       	ldd	r24, Y+6	; 0x06
     26c:	88 23       	and	r24, r24
     26e:	c9 f0       	breq	.+50     	; 0x2a2 <SetLongBLUEBit+0x52>
     270:	8d 81       	ldd	r24, Y+5	; 0x05
     272:	28 2f       	mov	r18, r24
     274:	30 e0       	ldi	r19, 0x00	; 0
     276:	80 e0       	ldi	r24, 0x00	; 0
     278:	90 e0       	ldi	r25, 0x00	; 0
     27a:	a1 e0       	ldi	r26, 0x01	; 1
     27c:	b0 e0       	ldi	r27, 0x00	; 0
     27e:	04 c0       	rjmp	.+8      	; 0x288 <SetLongBLUEBit+0x38>
     280:	88 0f       	add	r24, r24
     282:	99 1f       	adc	r25, r25
     284:	aa 1f       	adc	r26, r26
     286:	bb 1f       	adc	r27, r27
     288:	2a 95       	dec	r18
     28a:	d2 f7       	brpl	.-12     	; 0x280 <SetLongBLUEBit+0x30>
     28c:	9c 01       	movw	r18, r24
     28e:	ad 01       	movw	r20, r26
     290:	89 81       	ldd	r24, Y+1	; 0x01
     292:	9a 81       	ldd	r25, Y+2	; 0x02
     294:	ab 81       	ldd	r26, Y+3	; 0x03
     296:	bc 81       	ldd	r27, Y+4	; 0x04
     298:	82 2b       	or	r24, r18
     29a:	93 2b       	or	r25, r19
     29c:	a4 2b       	or	r26, r20
     29e:	b5 2b       	or	r27, r21
     2a0:	1c c0       	rjmp	.+56     	; 0x2da <SetLongBLUEBit+0x8a>
     2a2:	8d 81       	ldd	r24, Y+5	; 0x05
     2a4:	28 2f       	mov	r18, r24
     2a6:	30 e0       	ldi	r19, 0x00	; 0
     2a8:	80 e0       	ldi	r24, 0x00	; 0
     2aa:	90 e0       	ldi	r25, 0x00	; 0
     2ac:	a1 e0       	ldi	r26, 0x01	; 1
     2ae:	b0 e0       	ldi	r27, 0x00	; 0
     2b0:	04 c0       	rjmp	.+8      	; 0x2ba <SetLongBLUEBit+0x6a>
     2b2:	88 0f       	add	r24, r24
     2b4:	99 1f       	adc	r25, r25
     2b6:	aa 1f       	adc	r26, r26
     2b8:	bb 1f       	adc	r27, r27
     2ba:	2a 95       	dec	r18
     2bc:	d2 f7       	brpl	.-12     	; 0x2b2 <SetLongBLUEBit+0x62>
     2be:	80 95       	com	r24
     2c0:	90 95       	com	r25
     2c2:	a0 95       	com	r26
     2c4:	b0 95       	com	r27
     2c6:	9c 01       	movw	r18, r24
     2c8:	ad 01       	movw	r20, r26
     2ca:	89 81       	ldd	r24, Y+1	; 0x01
     2cc:	9a 81       	ldd	r25, Y+2	; 0x02
     2ce:	ab 81       	ldd	r26, Y+3	; 0x03
     2d0:	bc 81       	ldd	r27, Y+4	; 0x04
     2d2:	82 23       	and	r24, r18
     2d4:	93 23       	and	r25, r19
     2d6:	a4 23       	and	r26, r20
     2d8:	b5 23       	and	r27, r21
     2da:	bc 01       	movw	r22, r24
     2dc:	cd 01       	movw	r24, r26
     2de:	26 96       	adiw	r28, 0x06	; 6
     2e0:	0f b6       	in	r0, 0x3f	; 63
     2e2:	f8 94       	cli
     2e4:	de bf       	out	0x3e, r29	; 62
     2e6:	0f be       	out	0x3f, r0	; 63
     2e8:	cd bf       	out	0x3d, r28	; 61
     2ea:	df 91       	pop	r29
     2ec:	cf 91       	pop	r28
     2ee:	08 95       	ret

000002f0 <TimerSet>:
     2f0:	cf 93       	push	r28
     2f2:	df 93       	push	r29
     2f4:	00 d0       	rcall	.+0      	; 0x2f6 <TimerSet+0x6>
     2f6:	00 d0       	rcall	.+0      	; 0x2f8 <TimerSet+0x8>
     2f8:	cd b7       	in	r28, 0x3d	; 61
     2fa:	de b7       	in	r29, 0x3e	; 62
     2fc:	69 83       	std	Y+1, r22	; 0x01
     2fe:	7a 83       	std	Y+2, r23	; 0x02
     300:	8b 83       	std	Y+3, r24	; 0x03
     302:	9c 83       	std	Y+4, r25	; 0x04
     304:	89 81       	ldd	r24, Y+1	; 0x01
     306:	9a 81       	ldd	r25, Y+2	; 0x02
     308:	ab 81       	ldd	r26, Y+3	; 0x03
     30a:	bc 81       	ldd	r27, Y+4	; 0x04
     30c:	80 93 00 01 	sts	0x0100, r24
     310:	90 93 01 01 	sts	0x0101, r25
     314:	a0 93 02 01 	sts	0x0102, r26
     318:	b0 93 03 01 	sts	0x0103, r27
     31c:	80 91 00 01 	lds	r24, 0x0100
     320:	90 91 01 01 	lds	r25, 0x0101
     324:	a0 91 02 01 	lds	r26, 0x0102
     328:	b0 91 03 01 	lds	r27, 0x0103
     32c:	80 93 25 06 	sts	0x0625, r24
     330:	90 93 26 06 	sts	0x0626, r25
     334:	a0 93 27 06 	sts	0x0627, r26
     338:	b0 93 28 06 	sts	0x0628, r27
     33c:	0f 90       	pop	r0
     33e:	0f 90       	pop	r0
     340:	0f 90       	pop	r0
     342:	0f 90       	pop	r0
     344:	df 91       	pop	r29
     346:	cf 91       	pop	r28
     348:	08 95       	ret

0000034a <TimerOn>:
     34a:	cf 93       	push	r28
     34c:	df 93       	push	r29
     34e:	cd b7       	in	r28, 0x3d	; 61
     350:	de b7       	in	r29, 0x3e	; 62
     352:	81 e8       	ldi	r24, 0x81	; 129
     354:	90 e0       	ldi	r25, 0x00	; 0
     356:	2b e0       	ldi	r18, 0x0B	; 11
     358:	fc 01       	movw	r30, r24
     35a:	20 83       	st	Z, r18
     35c:	88 e8       	ldi	r24, 0x88	; 136
     35e:	90 e0       	ldi	r25, 0x00	; 0
     360:	2d e7       	ldi	r18, 0x7D	; 125
     362:	30 e0       	ldi	r19, 0x00	; 0
     364:	fc 01       	movw	r30, r24
     366:	31 83       	std	Z+1, r19	; 0x01
     368:	20 83       	st	Z, r18
     36a:	8f e6       	ldi	r24, 0x6F	; 111
     36c:	90 e0       	ldi	r25, 0x00	; 0
     36e:	22 e0       	ldi	r18, 0x02	; 2
     370:	fc 01       	movw	r30, r24
     372:	20 83       	st	Z, r18
     374:	84 e8       	ldi	r24, 0x84	; 132
     376:	90 e0       	ldi	r25, 0x00	; 0
     378:	fc 01       	movw	r30, r24
     37a:	11 82       	std	Z+1, r1	; 0x01
     37c:	10 82       	st	Z, r1
     37e:	80 91 00 01 	lds	r24, 0x0100
     382:	90 91 01 01 	lds	r25, 0x0101
     386:	a0 91 02 01 	lds	r26, 0x0102
     38a:	b0 91 03 01 	lds	r27, 0x0103
     38e:	80 93 25 06 	sts	0x0625, r24
     392:	90 93 26 06 	sts	0x0626, r25
     396:	a0 93 27 06 	sts	0x0627, r26
     39a:	b0 93 28 06 	sts	0x0628, r27
     39e:	8f e5       	ldi	r24, 0x5F	; 95
     3a0:	90 e0       	ldi	r25, 0x00	; 0
     3a2:	2f e5       	ldi	r18, 0x5F	; 95
     3a4:	30 e0       	ldi	r19, 0x00	; 0
     3a6:	f9 01       	movw	r30, r18
     3a8:	20 81       	ld	r18, Z
     3aa:	20 68       	ori	r18, 0x80	; 128
     3ac:	fc 01       	movw	r30, r24
     3ae:	20 83       	st	Z, r18
     3b0:	df 91       	pop	r29
     3b2:	cf 91       	pop	r28
     3b4:	08 95       	ret

000003b6 <TimerISR>:

void TimerISR() {
     3b6:	cf 93       	push	r28
     3b8:	df 93       	push	r29
     3ba:	cd b7       	in	r28, 0x3d	; 61
     3bc:	de b7       	in	r29, 0x3e	; 62
	TimerFlag = 1;
     3be:	81 e0       	ldi	r24, 0x01	; 1
     3c0:	80 93 24 06 	sts	0x0624, r24
}
     3c4:	df 91       	pop	r29
     3c6:	cf 91       	pop	r28
     3c8:	08 95       	ret

000003ca <__vector_13>:

// In our approach, the C programmer does not touch this ISR, but rather TimerISR()
ISR(TIMER1_COMPA_vect)
{
     3ca:	1f 92       	push	r1
     3cc:	0f 92       	push	r0
     3ce:	00 90 5f 00 	lds	r0, 0x005F
     3d2:	0f 92       	push	r0
     3d4:	11 24       	eor	r1, r1
     3d6:	00 90 5b 00 	lds	r0, 0x005B
     3da:	0f 92       	push	r0
     3dc:	2f 93       	push	r18
     3de:	3f 93       	push	r19
     3e0:	4f 93       	push	r20
     3e2:	5f 93       	push	r21
     3e4:	6f 93       	push	r22
     3e6:	7f 93       	push	r23
     3e8:	8f 93       	push	r24
     3ea:	9f 93       	push	r25
     3ec:	af 93       	push	r26
     3ee:	bf 93       	push	r27
     3f0:	ef 93       	push	r30
     3f2:	ff 93       	push	r31
     3f4:	cf 93       	push	r28
     3f6:	df 93       	push	r29
     3f8:	cd b7       	in	r28, 0x3d	; 61
     3fa:	de b7       	in	r29, 0x3e	; 62
	// CPU automatically calls when TCNT0 == OCR0 (every 1 ms per TimerOn settings)
	_avr_timer_cntcurr--; 			// Count down to 0 rather than up to TOP
     3fc:	80 91 25 06 	lds	r24, 0x0625
     400:	90 91 26 06 	lds	r25, 0x0626
     404:	a0 91 27 06 	lds	r26, 0x0627
     408:	b0 91 28 06 	lds	r27, 0x0628
     40c:	01 97       	sbiw	r24, 0x01	; 1
     40e:	a1 09       	sbc	r26, r1
     410:	b1 09       	sbc	r27, r1
     412:	80 93 25 06 	sts	0x0625, r24
     416:	90 93 26 06 	sts	0x0626, r25
     41a:	a0 93 27 06 	sts	0x0627, r26
     41e:	b0 93 28 06 	sts	0x0628, r27
	if (_avr_timer_cntcurr == 0) { 	// results in a more efficient compare
     422:	80 91 25 06 	lds	r24, 0x0625
     426:	90 91 26 06 	lds	r25, 0x0626
     42a:	a0 91 27 06 	lds	r26, 0x0627
     42e:	b0 91 28 06 	lds	r27, 0x0628
     432:	00 97       	sbiw	r24, 0x00	; 0
     434:	a1 05       	cpc	r26, r1
     436:	b1 05       	cpc	r27, r1
     438:	89 f4       	brne	.+34     	; 0x45c <__vector_13+0x92>
		TimerISR(); 				// Call the ISR that the user uses
     43a:	bd df       	rcall	.-134    	; 0x3b6 <TimerISR>
		_avr_timer_cntcurr = _avr_timer_M;
     43c:	80 91 00 01 	lds	r24, 0x0100
     440:	90 91 01 01 	lds	r25, 0x0101
     444:	a0 91 02 01 	lds	r26, 0x0102
     448:	b0 91 03 01 	lds	r27, 0x0103
     44c:	80 93 25 06 	sts	0x0625, r24
     450:	90 93 26 06 	sts	0x0626, r25
     454:	a0 93 27 06 	sts	0x0627, r26
     458:	b0 93 28 06 	sts	0x0628, r27
	}
}
     45c:	df 91       	pop	r29
     45e:	cf 91       	pop	r28
     460:	ff 91       	pop	r31
     462:	ef 91       	pop	r30
     464:	bf 91       	pop	r27
     466:	af 91       	pop	r26
     468:	9f 91       	pop	r25
     46a:	8f 91       	pop	r24
     46c:	7f 91       	pop	r23
     46e:	6f 91       	pop	r22
     470:	5f 91       	pop	r21
     472:	4f 91       	pop	r20
     474:	3f 91       	pop	r19
     476:	2f 91       	pop	r18
     478:	0f 90       	pop	r0
     47a:	00 92 5b 00 	sts	0x005B, r0
     47e:	0f 90       	pop	r0
     480:	00 92 5f 00 	sts	0x005F, r0
     484:	0f 90       	pop	r0
     486:	1f 90       	pop	r1
     488:	18 95       	reti

0000048a <LCD_ClearScreen>:
#define RS 4			// pin number of uC connected to pin 4 of LCD disp.
#define E 5		// pin number of uC connected to pin 6 of LCD disp.

/*-------------------------------------------------------------------------*/

void LCD_ClearScreen(void) {
     48a:	cf 93       	push	r28
     48c:	df 93       	push	r29
     48e:	cd b7       	in	r28, 0x3d	; 61
     490:	de b7       	in	r29, 0x3e	; 62
   LCD_WriteCommand(0x01);
     492:	81 e0       	ldi	r24, 0x01	; 1
     494:	18 d0       	rcall	.+48     	; 0x4c6 <LCD_WriteCommand>
}
     496:	df 91       	pop	r29
     498:	cf 91       	pop	r28
     49a:	08 95       	ret

0000049c <LCD_init>:

void LCD_init(void) {
     49c:	cf 93       	push	r28
     49e:	df 93       	push	r29
     4a0:	cd b7       	in	r28, 0x3d	; 61
     4a2:	de b7       	in	r29, 0x3e	; 62

    //wait for 100 ms.
	delay_ms(100);
     4a4:	84 e6       	ldi	r24, 0x64	; 100
     4a6:	90 e0       	ldi	r25, 0x00	; 0
     4a8:	a8 d0       	rcall	.+336    	; 0x5fa <delay_ms>
	LCD_WriteCommand(0x38);
     4aa:	88 e3       	ldi	r24, 0x38	; 56
     4ac:	0c d0       	rcall	.+24     	; 0x4c6 <LCD_WriteCommand>
	LCD_WriteCommand(0x06);
     4ae:	86 e0       	ldi	r24, 0x06	; 6
     4b0:	0a d0       	rcall	.+20     	; 0x4c6 <LCD_WriteCommand>
	LCD_WriteCommand(0x0f);
     4b2:	8f e0       	ldi	r24, 0x0F	; 15
     4b4:	08 d0       	rcall	.+16     	; 0x4c6 <LCD_WriteCommand>
	LCD_WriteCommand(0x01);
     4b6:	81 e0       	ldi	r24, 0x01	; 1
     4b8:	06 d0       	rcall	.+12     	; 0x4c6 <LCD_WriteCommand>
	delay_ms(10);						 
     4ba:	8a e0       	ldi	r24, 0x0A	; 10
     4bc:	90 e0       	ldi	r25, 0x00	; 0
     4be:	9d d0       	rcall	.+314    	; 0x5fa <delay_ms>
}
     4c0:	df 91       	pop	r29
     4c2:	cf 91       	pop	r28
     4c4:	08 95       	ret

000004c6 <LCD_WriteCommand>:

void LCD_WriteCommand (unsigned char Command) {
     4c6:	cf 93       	push	r28
     4c8:	df 93       	push	r29
     4ca:	1f 92       	push	r1
     4cc:	cd b7       	in	r28, 0x3d	; 61
     4ce:	de b7       	in	r29, 0x3e	; 62
     4d0:	89 83       	std	Y+1, r24	; 0x01
   CLR_BIT(CONTROL_BUS,RS);
     4d2:	82 e2       	ldi	r24, 0x22	; 34
     4d4:	90 e0       	ldi	r25, 0x00	; 0
     4d6:	22 e2       	ldi	r18, 0x22	; 34
     4d8:	30 e0       	ldi	r19, 0x00	; 0
     4da:	f9 01       	movw	r30, r18
     4dc:	20 81       	ld	r18, Z
     4de:	2f 7e       	andi	r18, 0xEF	; 239
     4e0:	fc 01       	movw	r30, r24
     4e2:	20 83       	st	Z, r18
   DATA_BUS = Command;
     4e4:	8b e2       	ldi	r24, 0x2B	; 43
     4e6:	90 e0       	ldi	r25, 0x00	; 0
     4e8:	29 81       	ldd	r18, Y+1	; 0x01
     4ea:	fc 01       	movw	r30, r24
     4ec:	20 83       	st	Z, r18
   SET_BIT(CONTROL_BUS,E);
     4ee:	82 e2       	ldi	r24, 0x22	; 34
     4f0:	90 e0       	ldi	r25, 0x00	; 0
     4f2:	22 e2       	ldi	r18, 0x22	; 34
     4f4:	30 e0       	ldi	r19, 0x00	; 0
     4f6:	f9 01       	movw	r30, r18
     4f8:	20 81       	ld	r18, Z
     4fa:	20 62       	ori	r18, 0x20	; 32
     4fc:	fc 01       	movw	r30, r24
     4fe:	20 83       	st	Z, r18
   asm("nop");
     500:	00 00       	nop
   CLR_BIT(CONTROL_BUS,E);
     502:	82 e2       	ldi	r24, 0x22	; 34
     504:	90 e0       	ldi	r25, 0x00	; 0
     506:	22 e2       	ldi	r18, 0x22	; 34
     508:	30 e0       	ldi	r19, 0x00	; 0
     50a:	f9 01       	movw	r30, r18
     50c:	20 81       	ld	r18, Z
     50e:	2f 7d       	andi	r18, 0xDF	; 223
     510:	fc 01       	movw	r30, r24
     512:	20 83       	st	Z, r18
   delay_ms(1); // ClearScreen requires 1.52ms to execute
     514:	81 e0       	ldi	r24, 0x01	; 1
     516:	90 e0       	ldi	r25, 0x00	; 0
     518:	70 d0       	rcall	.+224    	; 0x5fa <delay_ms>
}
     51a:	0f 90       	pop	r0
     51c:	df 91       	pop	r29
     51e:	cf 91       	pop	r28
     520:	08 95       	ret

00000522 <LCD_WriteData>:

void LCD_WriteData(unsigned char Data) {
     522:	cf 93       	push	r28
     524:	df 93       	push	r29
     526:	1f 92       	push	r1
     528:	cd b7       	in	r28, 0x3d	; 61
     52a:	de b7       	in	r29, 0x3e	; 62
     52c:	89 83       	std	Y+1, r24	; 0x01
   SET_BIT(CONTROL_BUS,RS);
     52e:	82 e2       	ldi	r24, 0x22	; 34
     530:	90 e0       	ldi	r25, 0x00	; 0
     532:	22 e2       	ldi	r18, 0x22	; 34
     534:	30 e0       	ldi	r19, 0x00	; 0
     536:	f9 01       	movw	r30, r18
     538:	20 81       	ld	r18, Z
     53a:	20 61       	ori	r18, 0x10	; 16
     53c:	fc 01       	movw	r30, r24
     53e:	20 83       	st	Z, r18
   DATA_BUS = Data;
     540:	8b e2       	ldi	r24, 0x2B	; 43
     542:	90 e0       	ldi	r25, 0x00	; 0
     544:	29 81       	ldd	r18, Y+1	; 0x01
     546:	fc 01       	movw	r30, r24
     548:	20 83       	st	Z, r18
   SET_BIT(CONTROL_BUS,E);
     54a:	82 e2       	ldi	r24, 0x22	; 34
     54c:	90 e0       	ldi	r25, 0x00	; 0
     54e:	22 e2       	ldi	r18, 0x22	; 34
     550:	30 e0       	ldi	r19, 0x00	; 0
     552:	f9 01       	movw	r30, r18
     554:	20 81       	ld	r18, Z
     556:	20 62       	ori	r18, 0x20	; 32
     558:	fc 01       	movw	r30, r24
     55a:	20 83       	st	Z, r18
   asm("nop");
     55c:	00 00       	nop
   CLR_BIT(CONTROL_BUS,E);
     55e:	82 e2       	ldi	r24, 0x22	; 34
     560:	90 e0       	ldi	r25, 0x00	; 0
     562:	22 e2       	ldi	r18, 0x22	; 34
     564:	30 e0       	ldi	r19, 0x00	; 0
     566:	f9 01       	movw	r30, r18
     568:	20 81       	ld	r18, Z
     56a:	2f 7d       	andi	r18, 0xDF	; 223
     56c:	fc 01       	movw	r30, r24
     56e:	20 83       	st	Z, r18
   delay_ms(1);
     570:	81 e0       	ldi	r24, 0x01	; 1
     572:	90 e0       	ldi	r25, 0x00	; 0
     574:	42 d0       	rcall	.+132    	; 0x5fa <delay_ms>
}
     576:	0f 90       	pop	r0
     578:	df 91       	pop	r29
     57a:	cf 91       	pop	r28
     57c:	08 95       	ret

0000057e <LCD_DisplayString>:

void LCD_DisplayString( unsigned char column, const unsigned char* string) {
     57e:	cf 93       	push	r28
     580:	df 93       	push	r29
     582:	00 d0       	rcall	.+0      	; 0x584 <LCD_DisplayString+0x6>
     584:	00 d0       	rcall	.+0      	; 0x586 <LCD_DisplayString+0x8>
     586:	cd b7       	in	r28, 0x3d	; 61
     588:	de b7       	in	r29, 0x3e	; 62
     58a:	8a 83       	std	Y+2, r24	; 0x02
     58c:	7c 83       	std	Y+4, r23	; 0x04
     58e:	6b 83       	std	Y+3, r22	; 0x03
   LCD_ClearScreen();
     590:	7c df       	rcall	.-264    	; 0x48a <LCD_ClearScreen>
   unsigned char c = column;
     592:	8a 81       	ldd	r24, Y+2	; 0x02
     594:	89 83       	std	Y+1, r24	; 0x01
   while(*string) {
     596:	10 c0       	rjmp	.+32     	; 0x5b8 <LCD_DisplayString+0x3a>
      LCD_Cursor(c++);
     598:	89 81       	ldd	r24, Y+1	; 0x01
     59a:	99 81       	ldd	r25, Y+1	; 0x01
     59c:	9f 5f       	subi	r25, 0xFF	; 255
     59e:	99 83       	std	Y+1, r25	; 0x01
     5a0:	18 d0       	rcall	.+48     	; 0x5d2 <LCD_Cursor>
      LCD_WriteData(*string++);
     5a2:	8b 81       	ldd	r24, Y+3	; 0x03
     5a4:	9c 81       	ldd	r25, Y+4	; 0x04
     5a6:	fc 01       	movw	r30, r24
     5a8:	20 81       	ld	r18, Z
     5aa:	8b 81       	ldd	r24, Y+3	; 0x03
     5ac:	9c 81       	ldd	r25, Y+4	; 0x04
     5ae:	01 96       	adiw	r24, 0x01	; 1
     5b0:	9c 83       	std	Y+4, r25	; 0x04
     5b2:	8b 83       	std	Y+3, r24	; 0x03
     5b4:	82 2f       	mov	r24, r18
     5b6:	b5 df       	rcall	.-150    	; 0x522 <LCD_WriteData>
}

void LCD_DisplayString( unsigned char column, const unsigned char* string) {
   LCD_ClearScreen();
   unsigned char c = column;
   while(*string) {
     5b8:	8b 81       	ldd	r24, Y+3	; 0x03
     5ba:	9c 81       	ldd	r25, Y+4	; 0x04
     5bc:	fc 01       	movw	r30, r24
     5be:	80 81       	ld	r24, Z
     5c0:	88 23       	and	r24, r24
     5c2:	51 f7       	brne	.-44     	; 0x598 <LCD_DisplayString+0x1a>
      LCD_Cursor(c++);
      LCD_WriteData(*string++);
   }
}
     5c4:	0f 90       	pop	r0
     5c6:	0f 90       	pop	r0
     5c8:	0f 90       	pop	r0
     5ca:	0f 90       	pop	r0
     5cc:	df 91       	pop	r29
     5ce:	cf 91       	pop	r28
     5d0:	08 95       	ret

000005d2 <LCD_Cursor>:

void LCD_Cursor(unsigned char column) {
     5d2:	cf 93       	push	r28
     5d4:	df 93       	push	r29
     5d6:	1f 92       	push	r1
     5d8:	cd b7       	in	r28, 0x3d	; 61
     5da:	de b7       	in	r29, 0x3e	; 62
     5dc:	89 83       	std	Y+1, r24	; 0x01
   if ( column < 17 ) { // 16x1 LCD: column < 9
     5de:	89 81       	ldd	r24, Y+1	; 0x01
     5e0:	81 31       	cpi	r24, 0x11	; 17
     5e2:	20 f4       	brcc	.+8      	; 0x5ec <LCD_Cursor+0x1a>
						// 16x2 LCD: column < 17
      LCD_WriteCommand(0x80 + column - 1);
     5e4:	89 81       	ldd	r24, Y+1	; 0x01
     5e6:	81 58       	subi	r24, 0x81	; 129
     5e8:	6e df       	rcall	.-292    	; 0x4c6 <LCD_WriteCommand>
     5ea:	03 c0       	rjmp	.+6      	; 0x5f2 <LCD_Cursor+0x20>
   } else {
      LCD_WriteCommand(0xB8 + column - 9);	// 16x1 LCD: column - 1
     5ec:	89 81       	ldd	r24, Y+1	; 0x01
     5ee:	81 55       	subi	r24, 0x51	; 81
     5f0:	6a df       	rcall	.-300    	; 0x4c6 <LCD_WriteCommand>
											// 16x2 LCD: column - 9
   }
}
     5f2:	0f 90       	pop	r0
     5f4:	df 91       	pop	r29
     5f6:	cf 91       	pop	r28
     5f8:	08 95       	ret

000005fa <delay_ms>:

void delay_ms(int miliSec) //for 8 Mhz crystal

{
     5fa:	cf 93       	push	r28
     5fc:	df 93       	push	r29
     5fe:	00 d0       	rcall	.+0      	; 0x600 <delay_ms+0x6>
     600:	00 d0       	rcall	.+0      	; 0x602 <delay_ms+0x8>
     602:	00 d0       	rcall	.+0      	; 0x604 <delay_ms+0xa>
     604:	cd b7       	in	r28, 0x3d	; 61
     606:	de b7       	in	r29, 0x3e	; 62
     608:	9e 83       	std	Y+6, r25	; 0x06
     60a:	8d 83       	std	Y+5, r24	; 0x05
    int i,j;
    for(i=0;i<miliSec;i++)
     60c:	1a 82       	std	Y+2, r1	; 0x02
     60e:	19 82       	std	Y+1, r1	; 0x01
     610:	14 c0       	rjmp	.+40     	; 0x63a <delay_ms+0x40>
    for(j=0;j<775;j++)
     612:	1c 82       	std	Y+4, r1	; 0x04
     614:	1b 82       	std	Y+3, r1	; 0x03
     616:	06 c0       	rjmp	.+12     	; 0x624 <delay_ms+0x2a>
  {
   asm("nop");
     618:	00 00       	nop
void delay_ms(int miliSec) //for 8 Mhz crystal

{
    int i,j;
    for(i=0;i<miliSec;i++)
    for(j=0;j<775;j++)
     61a:	8b 81       	ldd	r24, Y+3	; 0x03
     61c:	9c 81       	ldd	r25, Y+4	; 0x04
     61e:	01 96       	adiw	r24, 0x01	; 1
     620:	9c 83       	std	Y+4, r25	; 0x04
     622:	8b 83       	std	Y+3, r24	; 0x03
     624:	8b 81       	ldd	r24, Y+3	; 0x03
     626:	9c 81       	ldd	r25, Y+4	; 0x04
     628:	87 30       	cpi	r24, 0x07	; 7
     62a:	23 e0       	ldi	r18, 0x03	; 3
     62c:	92 07       	cpc	r25, r18
     62e:	a4 f3       	brlt	.-24     	; 0x618 <delay_ms+0x1e>

void delay_ms(int miliSec) //for 8 Mhz crystal

{
    int i,j;
    for(i=0;i<miliSec;i++)
     630:	89 81       	ldd	r24, Y+1	; 0x01
     632:	9a 81       	ldd	r25, Y+2	; 0x02
     634:	01 96       	adiw	r24, 0x01	; 1
     636:	9a 83       	std	Y+2, r25	; 0x02
     638:	89 83       	std	Y+1, r24	; 0x01
     63a:	29 81       	ldd	r18, Y+1	; 0x01
     63c:	3a 81       	ldd	r19, Y+2	; 0x02
     63e:	8d 81       	ldd	r24, Y+5	; 0x05
     640:	9e 81       	ldd	r25, Y+6	; 0x06
     642:	28 17       	cp	r18, r24
     644:	39 07       	cpc	r19, r25
     646:	2c f3       	brlt	.-54     	; 0x612 <delay_ms+0x18>
    for(j=0;j<775;j++)
  {
   asm("nop");
  }
}
     648:	26 96       	adiw	r28, 0x06	; 6
     64a:	0f b6       	in	r0, 0x3f	; 63
     64c:	f8 94       	cli
     64e:	de bf       	out	0x3e, r29	; 62
     650:	0f be       	out	0x3f, r0	; 63
     652:	cd bf       	out	0x3d, r28	; 61
     654:	df 91       	pop	r29
     656:	cf 91       	pop	r28
     658:	08 95       	ret

0000065a <calc_render_range>:

//used to determine new range to render
//length x is the length of the map currently located in
//ADD FLAG FOR BOSS MODE
void calc_render_range(unsigned char length_x)
{
     65a:	cf 93       	push	r28
     65c:	df 93       	push	r29
     65e:	1f 92       	push	r1
     660:	cd b7       	in	r28, 0x3d	; 61
     662:	de b7       	in	r29, 0x3e	; 62
     664:	89 83       	std	Y+1, r24	; 0x01
	//determine range to render
	if(pos_x == 0)//if at left most position
     666:	80 91 07 01 	lds	r24, 0x0107
     66a:	88 23       	and	r24, r24
     66c:	31 f4       	brne	.+12     	; 0x67a <calc_render_range+0x20>
	{
		start_render = 0;
     66e:	10 92 31 06 	sts	0x0631, r1
		end_render = 8;
     672:	88 e0       	ldi	r24, 0x08	; 8
     674:	80 93 06 01 	sts	0x0106, r24
     678:	54 c0       	rjmp	.+168    	; 0x722 <calc_render_range+0xc8>
	}
	else if(pos_x+1 == length_x || pos_x+2 == length_x || pos_x+3 == length_x  || pos_x+4 == length_x  )//if at right most position
     67a:	80 91 07 01 	lds	r24, 0x0107
     67e:	99 27       	eor	r25, r25
     680:	87 fd       	sbrc	r24, 7
     682:	90 95       	com	r25
     684:	9c 01       	movw	r18, r24
     686:	2f 5f       	subi	r18, 0xFF	; 255
     688:	3f 4f       	sbci	r19, 0xFF	; 255
     68a:	89 81       	ldd	r24, Y+1	; 0x01
     68c:	88 2f       	mov	r24, r24
     68e:	90 e0       	ldi	r25, 0x00	; 0
     690:	28 17       	cp	r18, r24
     692:	39 07       	cpc	r19, r25
     694:	51 f1       	breq	.+84     	; 0x6ea <calc_render_range+0x90>
     696:	80 91 07 01 	lds	r24, 0x0107
     69a:	99 27       	eor	r25, r25
     69c:	87 fd       	sbrc	r24, 7
     69e:	90 95       	com	r25
     6a0:	9c 01       	movw	r18, r24
     6a2:	2e 5f       	subi	r18, 0xFE	; 254
     6a4:	3f 4f       	sbci	r19, 0xFF	; 255
     6a6:	89 81       	ldd	r24, Y+1	; 0x01
     6a8:	88 2f       	mov	r24, r24
     6aa:	90 e0       	ldi	r25, 0x00	; 0
     6ac:	28 17       	cp	r18, r24
     6ae:	39 07       	cpc	r19, r25
     6b0:	e1 f0       	breq	.+56     	; 0x6ea <calc_render_range+0x90>
     6b2:	80 91 07 01 	lds	r24, 0x0107
     6b6:	99 27       	eor	r25, r25
     6b8:	87 fd       	sbrc	r24, 7
     6ba:	90 95       	com	r25
     6bc:	9c 01       	movw	r18, r24
     6be:	2d 5f       	subi	r18, 0xFD	; 253
     6c0:	3f 4f       	sbci	r19, 0xFF	; 255
     6c2:	89 81       	ldd	r24, Y+1	; 0x01
     6c4:	88 2f       	mov	r24, r24
     6c6:	90 e0       	ldi	r25, 0x00	; 0
     6c8:	28 17       	cp	r18, r24
     6ca:	39 07       	cpc	r19, r25
     6cc:	71 f0       	breq	.+28     	; 0x6ea <calc_render_range+0x90>
     6ce:	80 91 07 01 	lds	r24, 0x0107
     6d2:	99 27       	eor	r25, r25
     6d4:	87 fd       	sbrc	r24, 7
     6d6:	90 95       	com	r25
     6d8:	9c 01       	movw	r18, r24
     6da:	2c 5f       	subi	r18, 0xFC	; 252
     6dc:	3f 4f       	sbci	r19, 0xFF	; 255
     6de:	89 81       	ldd	r24, Y+1	; 0x01
     6e0:	88 2f       	mov	r24, r24
     6e2:	90 e0       	ldi	r25, 0x00	; 0
     6e4:	28 17       	cp	r18, r24
     6e6:	39 07       	cpc	r19, r25
     6e8:	41 f4       	brne	.+16     	; 0x6fa <calc_render_range+0xa0>
	{
		start_render = length_x-8;
     6ea:	89 81       	ldd	r24, Y+1	; 0x01
     6ec:	88 50       	subi	r24, 0x08	; 8
     6ee:	80 93 31 06 	sts	0x0631, r24
		end_render = length_x;
     6f2:	89 81       	ldd	r24, Y+1	; 0x01
     6f4:	80 93 06 01 	sts	0x0106, r24
     6f8:	14 c0       	rjmp	.+40     	; 0x722 <calc_render_range+0xc8>
	}
	else if(pos_x < 4)
     6fa:	80 91 07 01 	lds	r24, 0x0107
     6fe:	84 30       	cpi	r24, 0x04	; 4
     700:	34 f4       	brge	.+12     	; 0x70e <calc_render_range+0xb4>
	{
		start_render = 0;
     702:	10 92 31 06 	sts	0x0631, r1
		end_render = 8;
     706:	88 e0       	ldi	r24, 0x08	; 8
     708:	80 93 06 01 	sts	0x0106, r24
     70c:	0a c0       	rjmp	.+20     	; 0x722 <calc_render_range+0xc8>
	}
	else //if(pos_x >= 4 && pos_x+4 <= length_x)
	{
			start_render = pos_x-3;
     70e:	80 91 07 01 	lds	r24, 0x0107
     712:	83 50       	subi	r24, 0x03	; 3
     714:	80 93 31 06 	sts	0x0631, r24
			end_render = pos_x+5;
     718:	80 91 07 01 	lds	r24, 0x0107
     71c:	8b 5f       	subi	r24, 0xFB	; 251
     71e:	80 93 06 01 	sts	0x0106, r24
	}
}
     722:	0f 90       	pop	r0
     724:	df 91       	pop	r29
     726:	cf 91       	pop	r28
     728:	08 95       	ret

0000072a <calc_render>:
//right bits control green lines [7-0]
//fills active_red array to properly display what is on screen
//fills active_blue array to properly display what is on screen
//fills active_green array to properly display what is on screen
void calc_render()
{
     72a:	cf 93       	push	r28
     72c:	df 93       	push	r29
     72e:	00 d0       	rcall	.+0      	; 0x730 <calc_render+0x6>
     730:	cd b7       	in	r28, 0x3d	; 61
     732:	de b7       	in	r29, 0x3e	; 62
//reset values on to_render
 to_renderR = 0xFFFFFF;
     734:	8f ef       	ldi	r24, 0xFF	; 255
     736:	9f ef       	ldi	r25, 0xFF	; 255
     738:	af ef       	ldi	r26, 0xFF	; 255
     73a:	b0 e0       	ldi	r27, 0x00	; 0
     73c:	80 93 09 01 	sts	0x0109, r24
     740:	90 93 0a 01 	sts	0x010A, r25
     744:	a0 93 0b 01 	sts	0x010B, r26
     748:	b0 93 0c 01 	sts	0x010C, r27
 to_renderG = 0xFFFFFF;
     74c:	8f ef       	ldi	r24, 0xFF	; 255
     74e:	9f ef       	ldi	r25, 0xFF	; 255
     750:	af ef       	ldi	r26, 0xFF	; 255
     752:	b0 e0       	ldi	r27, 0x00	; 0
     754:	80 93 0d 01 	sts	0x010D, r24
     758:	90 93 0e 01 	sts	0x010E, r25
     75c:	a0 93 0f 01 	sts	0x010F, r26
     760:	b0 93 10 01 	sts	0x0110, r27
 to_renderB = 0xFFFFFF;
     764:	8f ef       	ldi	r24, 0xFF	; 255
     766:	9f ef       	ldi	r25, 0xFF	; 255
     768:	af ef       	ldi	r26, 0xFF	; 255
     76a:	b0 e0       	ldi	r27, 0x00	; 0
     76c:	80 93 11 01 	sts	0x0111, r24
     770:	90 93 12 01 	sts	0x0112, r25
     774:	a0 93 13 01 	sts	0x0113, r26
     778:	b0 93 14 01 	sts	0x0114, r27
	
 for(unsigned char y = 0; y < 8 ; y++)
     77c:	19 82       	std	Y+1, r1	; 0x01
     77e:	42 c1       	rjmp	.+644    	; 0xa04 <calc_render+0x2da>
 {
  cur_bit = 7;//reset bit to change
     780:	87 e0       	ldi	r24, 0x07	; 7
     782:	80 93 2f 06 	sts	0x062F, r24
   for(unsigned char x = start_render; x < end_render ; x++)
     786:	80 91 31 06 	lds	r24, 0x0631
     78a:	8a 83       	std	Y+2, r24	; 0x02
     78c:	cc c0       	rjmp	.+408    	; 0x926 <calc_render+0x1fc>
   {
	  //set loc val dependent on level
	  if(cur_level == 1)
     78e:	80 91 05 01 	lds	r24, 0x0105
     792:	81 30       	cpi	r24, 0x01	; 1
     794:	a9 f4       	brne	.+42     	; 0x7c0 <calc_render+0x96>
	  {
	   loc_val = level1[y][x];
     796:	89 81       	ldd	r24, Y+1	; 0x01
     798:	48 2f       	mov	r20, r24
     79a:	50 e0       	ldi	r21, 0x00	; 0
     79c:	8a 81       	ldd	r24, Y+2	; 0x02
     79e:	88 2f       	mov	r24, r24
     7a0:	90 e0       	ldi	r25, 0x00	; 0
     7a2:	66 e8       	ldi	r22, 0x86	; 134
     7a4:	64 9f       	mul	r22, r20
     7a6:	90 01       	movw	r18, r0
     7a8:	65 9f       	mul	r22, r21
     7aa:	30 0d       	add	r19, r0
     7ac:	11 24       	eor	r1, r1
     7ae:	82 0f       	add	r24, r18
     7b0:	93 1f       	adc	r25, r19
     7b2:	83 5e       	subi	r24, 0xE3	; 227
     7b4:	9e 4f       	sbci	r25, 0xFE	; 254
     7b6:	fc 01       	movw	r30, r24
     7b8:	80 81       	ld	r24, Z
     7ba:	80 93 2b 06 	sts	0x062B, r24
     7be:	18 c0       	rjmp	.+48     	; 0x7f0 <calc_render+0xc6>
	  }
	  else if(cur_level == 2)
     7c0:	80 91 05 01 	lds	r24, 0x0105
     7c4:	82 30       	cpi	r24, 0x02	; 2
     7c6:	a1 f4       	brne	.+40     	; 0x7f0 <calc_render+0xc6>
	  {
	   loc_val = level2[y][x];  
     7c8:	89 81       	ldd	r24, Y+1	; 0x01
     7ca:	48 2f       	mov	r20, r24
     7cc:	50 e0       	ldi	r21, 0x00	; 0
     7ce:	8a 81       	ldd	r24, Y+2	; 0x02
     7d0:	88 2f       	mov	r24, r24
     7d2:	90 e0       	ldi	r25, 0x00	; 0
     7d4:	64 e1       	ldi	r22, 0x14	; 20
     7d6:	64 9f       	mul	r22, r20
     7d8:	90 01       	movw	r18, r0
     7da:	65 9f       	mul	r22, r21
     7dc:	30 0d       	add	r19, r0
     7de:	11 24       	eor	r1, r1
     7e0:	82 0f       	add	r24, r18
     7e2:	93 1f       	adc	r25, r19
     7e4:	83 5b       	subi	r24, 0xB3	; 179
     7e6:	9a 4f       	sbci	r25, 0xFA	; 250
     7e8:	fc 01       	movw	r30, r24
     7ea:	80 81       	ld	r24, Z
     7ec:	80 93 2b 06 	sts	0x062B, r24
	  {
		  loc_val = level4[y][x];
	  }
	  */
	  //RED
	  if(loc_val == RED || loc_val == TILE || loc_val == YELLOW || loc_val == PURPLE || loc_val == WHITE || loc_val == WHIP)
     7f0:	80 91 2b 06 	lds	r24, 0x062B
     7f4:	81 30       	cpi	r24, 0x01	; 1
     7f6:	a1 f0       	breq	.+40     	; 0x820 <calc_render+0xf6>
     7f8:	80 91 2b 06 	lds	r24, 0x062B
     7fc:	86 30       	cpi	r24, 0x06	; 6
     7fe:	81 f0       	breq	.+32     	; 0x820 <calc_render+0xf6>
     800:	80 91 2b 06 	lds	r24, 0x062B
     804:	87 30       	cpi	r24, 0x07	; 7
     806:	61 f0       	breq	.+24     	; 0x820 <calc_render+0xf6>
     808:	80 91 2b 06 	lds	r24, 0x062B
     80c:	84 30       	cpi	r24, 0x04	; 4
     80e:	41 f0       	breq	.+16     	; 0x820 <calc_render+0xf6>
     810:	80 91 2b 06 	lds	r24, 0x062B
     814:	89 30       	cpi	r24, 0x09	; 9
     816:	21 f0       	breq	.+8      	; 0x820 <calc_render+0xf6>
     818:	80 91 2b 06 	lds	r24, 0x062B
     81c:	8a 30       	cpi	r24, 0x0A	; 10
     81e:	c9 f4       	brne	.+50     	; 0x852 <calc_render+0x128>
	  {
	    to_renderR = SetLongREDBit(to_renderR,cur_bit,0);
     820:	30 91 2f 06 	lds	r19, 0x062F
     824:	80 91 09 01 	lds	r24, 0x0109
     828:	90 91 0a 01 	lds	r25, 0x010A
     82c:	a0 91 0b 01 	lds	r26, 0x010B
     830:	b0 91 0c 01 	lds	r27, 0x010C
     834:	20 e0       	ldi	r18, 0x00	; 0
     836:	43 2f       	mov	r20, r19
     838:	bc 01       	movw	r22, r24
     83a:	cd 01       	movw	r24, r26
     83c:	71 dc       	rcall	.-1822   	; 0x120 <SetLongREDBit>
     83e:	dc 01       	movw	r26, r24
     840:	cb 01       	movw	r24, r22
     842:	80 93 09 01 	sts	0x0109, r24
     846:	90 93 0a 01 	sts	0x010A, r25
     84a:	a0 93 0b 01 	sts	0x010B, r26
     84e:	b0 93 0c 01 	sts	0x010C, r27
	  }
	  //GREEN
	  if(loc_val == GREEN || loc_val == YELLOW || loc_val == TEAL || loc_val == EXIT_COLOR  || loc_val == WHITE || loc_val == WHIP)
     852:	80 91 2b 06 	lds	r24, 0x062B
     856:	83 30       	cpi	r24, 0x03	; 3
     858:	a1 f0       	breq	.+40     	; 0x882 <calc_render+0x158>
     85a:	80 91 2b 06 	lds	r24, 0x062B
     85e:	87 30       	cpi	r24, 0x07	; 7
     860:	81 f0       	breq	.+32     	; 0x882 <calc_render+0x158>
     862:	80 91 2b 06 	lds	r24, 0x062B
     866:	88 30       	cpi	r24, 0x08	; 8
     868:	61 f0       	breq	.+24     	; 0x882 <calc_render+0x158>
     86a:	80 91 2b 06 	lds	r24, 0x062B
     86e:	85 30       	cpi	r24, 0x05	; 5
     870:	41 f0       	breq	.+16     	; 0x882 <calc_render+0x158>
     872:	80 91 2b 06 	lds	r24, 0x062B
     876:	89 30       	cpi	r24, 0x09	; 9
     878:	21 f0       	breq	.+8      	; 0x882 <calc_render+0x158>
     87a:	80 91 2b 06 	lds	r24, 0x062B
     87e:	8a 30       	cpi	r24, 0x0A	; 10
     880:	c9 f4       	brne	.+50     	; 0x8b4 <calc_render+0x18a>
	  {
	   to_renderG = SetLongGREENBit(to_renderG,cur_bit,0);	
     882:	30 91 2f 06 	lds	r19, 0x062F
     886:	80 91 0d 01 	lds	r24, 0x010D
     88a:	90 91 0e 01 	lds	r25, 0x010E
     88e:	a0 91 0f 01 	lds	r26, 0x010F
     892:	b0 91 10 01 	lds	r27, 0x0110
     896:	20 e0       	ldi	r18, 0x00	; 0
     898:	43 2f       	mov	r20, r19
     89a:	bc 01       	movw	r22, r24
     89c:	cd 01       	movw	r24, r26
     89e:	8c dc       	rcall	.-1768   	; 0x1b8 <SetLongGREENBit>
     8a0:	dc 01       	movw	r26, r24
     8a2:	cb 01       	movw	r24, r22
     8a4:	80 93 0d 01 	sts	0x010D, r24
     8a8:	90 93 0e 01 	sts	0x010E, r25
     8ac:	a0 93 0f 01 	sts	0x010F, r26
     8b0:	b0 93 10 01 	sts	0x0110, r27
      }
	  //BLUE
     if(loc_val == BLUE || loc_val == PURPLE || loc_val == TEAL || loc_val == EXIT_COLOR || loc_val == WHITE || loc_val == WHIP)
     8b4:	80 91 2b 06 	lds	r24, 0x062B
     8b8:	82 30       	cpi	r24, 0x02	; 2
     8ba:	a1 f0       	breq	.+40     	; 0x8e4 <calc_render+0x1ba>
     8bc:	80 91 2b 06 	lds	r24, 0x062B
     8c0:	84 30       	cpi	r24, 0x04	; 4
     8c2:	81 f0       	breq	.+32     	; 0x8e4 <calc_render+0x1ba>
     8c4:	80 91 2b 06 	lds	r24, 0x062B
     8c8:	88 30       	cpi	r24, 0x08	; 8
     8ca:	61 f0       	breq	.+24     	; 0x8e4 <calc_render+0x1ba>
     8cc:	80 91 2b 06 	lds	r24, 0x062B
     8d0:	85 30       	cpi	r24, 0x05	; 5
     8d2:	41 f0       	breq	.+16     	; 0x8e4 <calc_render+0x1ba>
     8d4:	80 91 2b 06 	lds	r24, 0x062B
     8d8:	89 30       	cpi	r24, 0x09	; 9
     8da:	21 f0       	breq	.+8      	; 0x8e4 <calc_render+0x1ba>
     8dc:	80 91 2b 06 	lds	r24, 0x062B
     8e0:	8a 30       	cpi	r24, 0x0A	; 10
     8e2:	c9 f4       	brne	.+50     	; 0x916 <calc_render+0x1ec>
     {
       to_renderB = SetLongBLUEBit(to_renderB,cur_bit,0);
     8e4:	30 91 2f 06 	lds	r19, 0x062F
     8e8:	80 91 11 01 	lds	r24, 0x0111
     8ec:	90 91 12 01 	lds	r25, 0x0112
     8f0:	a0 91 13 01 	lds	r26, 0x0113
     8f4:	b0 91 14 01 	lds	r27, 0x0114
     8f8:	20 e0       	ldi	r18, 0x00	; 0
     8fa:	43 2f       	mov	r20, r19
     8fc:	bc 01       	movw	r22, r24
     8fe:	cd 01       	movw	r24, r26
     900:	a7 dc       	rcall	.-1714   	; 0x250 <SetLongBLUEBit>
     902:	dc 01       	movw	r26, r24
     904:	cb 01       	movw	r24, r22
     906:	80 93 11 01 	sts	0x0111, r24
     90a:	90 93 12 01 	sts	0x0112, r25
     90e:	a0 93 13 01 	sts	0x0113, r26
     912:	b0 93 14 01 	sts	0x0114, r27
     }
	 
	 cur_bit--;//move to next bit to render
     916:	80 91 2f 06 	lds	r24, 0x062F
     91a:	81 50       	subi	r24, 0x01	; 1
     91c:	80 93 2f 06 	sts	0x062F, r24
 to_renderB = 0xFFFFFF;
	
 for(unsigned char y = 0; y < 8 ; y++)
 {
  cur_bit = 7;//reset bit to change
   for(unsigned char x = start_render; x < end_render ; x++)
     920:	8a 81       	ldd	r24, Y+2	; 0x02
     922:	8f 5f       	subi	r24, 0xFF	; 255
     924:	8a 83       	std	Y+2, r24	; 0x02
     926:	80 91 06 01 	lds	r24, 0x0106
     92a:	9a 81       	ldd	r25, Y+2	; 0x02
     92c:	98 17       	cp	r25, r24
     92e:	08 f4       	brcc	.+2      	; 0x932 <calc_render+0x208>
     930:	2e cf       	rjmp	.-420    	; 0x78e <calc_render+0x64>
     }
	 
	 cur_bit--;//move to next bit to render
   }//inner for loop (x)
   //place values in respective arrays
   active_red[y] = to_renderR;
     932:	89 81       	ldd	r24, Y+1	; 0x01
     934:	28 2f       	mov	r18, r24
     936:	30 e0       	ldi	r19, 0x00	; 0
     938:	80 91 09 01 	lds	r24, 0x0109
     93c:	90 91 0a 01 	lds	r25, 0x010A
     940:	a0 91 0b 01 	lds	r26, 0x010B
     944:	b0 91 0c 01 	lds	r27, 0x010C
     948:	22 0f       	add	r18, r18
     94a:	33 1f       	adc	r19, r19
     94c:	22 0f       	add	r18, r18
     94e:	33 1f       	adc	r19, r19
     950:	2b 58       	subi	r18, 0x8B	; 139
     952:	39 4f       	sbci	r19, 0xF9	; 249
     954:	f9 01       	movw	r30, r18
     956:	80 83       	st	Z, r24
     958:	91 83       	std	Z+1, r25	; 0x01
     95a:	a2 83       	std	Z+2, r26	; 0x02
     95c:	b3 83       	std	Z+3, r27	; 0x03
   active_green[y] = to_renderG;
     95e:	89 81       	ldd	r24, Y+1	; 0x01
     960:	28 2f       	mov	r18, r24
     962:	30 e0       	ldi	r19, 0x00	; 0
     964:	80 91 0d 01 	lds	r24, 0x010D
     968:	90 91 0e 01 	lds	r25, 0x010E
     96c:	a0 91 0f 01 	lds	r26, 0x010F
     970:	b0 91 10 01 	lds	r27, 0x0110
     974:	22 0f       	add	r18, r18
     976:	33 1f       	adc	r19, r19
     978:	22 0f       	add	r18, r18
     97a:	33 1f       	adc	r19, r19
     97c:	2b 5a       	subi	r18, 0xAB	; 171
     97e:	39 4f       	sbci	r19, 0xF9	; 249
     980:	f9 01       	movw	r30, r18
     982:	80 83       	st	Z, r24
     984:	91 83       	std	Z+1, r25	; 0x01
     986:	a2 83       	std	Z+2, r26	; 0x02
     988:	b3 83       	std	Z+3, r27	; 0x03
   active_blue[y] = to_renderB;
     98a:	89 81       	ldd	r24, Y+1	; 0x01
     98c:	28 2f       	mov	r18, r24
     98e:	30 e0       	ldi	r19, 0x00	; 0
     990:	80 91 11 01 	lds	r24, 0x0111
     994:	90 91 12 01 	lds	r25, 0x0112
     998:	a0 91 13 01 	lds	r26, 0x0113
     99c:	b0 91 14 01 	lds	r27, 0x0114
     9a0:	22 0f       	add	r18, r18
     9a2:	33 1f       	adc	r19, r19
     9a4:	22 0f       	add	r18, r18
     9a6:	33 1f       	adc	r19, r19
     9a8:	2b 5c       	subi	r18, 0xCB	; 203
     9aa:	39 4f       	sbci	r19, 0xF9	; 249
     9ac:	f9 01       	movw	r30, r18
     9ae:	80 83       	st	Z, r24
     9b0:	91 83       	std	Z+1, r25	; 0x01
     9b2:	a2 83       	std	Z+2, r26	; 0x02
     9b4:	b3 83       	std	Z+3, r27	; 0x03
   //reset long values
   to_renderR = 0xFFFFFF;
     9b6:	8f ef       	ldi	r24, 0xFF	; 255
     9b8:	9f ef       	ldi	r25, 0xFF	; 255
     9ba:	af ef       	ldi	r26, 0xFF	; 255
     9bc:	b0 e0       	ldi	r27, 0x00	; 0
     9be:	80 93 09 01 	sts	0x0109, r24
     9c2:	90 93 0a 01 	sts	0x010A, r25
     9c6:	a0 93 0b 01 	sts	0x010B, r26
     9ca:	b0 93 0c 01 	sts	0x010C, r27
   to_renderG = 0xFFFFFF;
     9ce:	8f ef       	ldi	r24, 0xFF	; 255
     9d0:	9f ef       	ldi	r25, 0xFF	; 255
     9d2:	af ef       	ldi	r26, 0xFF	; 255
     9d4:	b0 e0       	ldi	r27, 0x00	; 0
     9d6:	80 93 0d 01 	sts	0x010D, r24
     9da:	90 93 0e 01 	sts	0x010E, r25
     9de:	a0 93 0f 01 	sts	0x010F, r26
     9e2:	b0 93 10 01 	sts	0x0110, r27
   to_renderB = 0xFFFFFF;
     9e6:	8f ef       	ldi	r24, 0xFF	; 255
     9e8:	9f ef       	ldi	r25, 0xFF	; 255
     9ea:	af ef       	ldi	r26, 0xFF	; 255
     9ec:	b0 e0       	ldi	r27, 0x00	; 0
     9ee:	80 93 11 01 	sts	0x0111, r24
     9f2:	90 93 12 01 	sts	0x0112, r25
     9f6:	a0 93 13 01 	sts	0x0113, r26
     9fa:	b0 93 14 01 	sts	0x0114, r27
//reset values on to_render
 to_renderR = 0xFFFFFF;
 to_renderG = 0xFFFFFF;
 to_renderB = 0xFFFFFF;
	
 for(unsigned char y = 0; y < 8 ; y++)
     9fe:	89 81       	ldd	r24, Y+1	; 0x01
     a00:	8f 5f       	subi	r24, 0xFF	; 255
     a02:	89 83       	std	Y+1, r24	; 0x01
     a04:	89 81       	ldd	r24, Y+1	; 0x01
     a06:	88 30       	cpi	r24, 0x08	; 8
     a08:	08 f4       	brcc	.+2      	; 0xa0c <calc_render+0x2e2>
     a0a:	ba ce       	rjmp	.-652    	; 0x780 <calc_render+0x56>
   //reset long values
   to_renderR = 0xFFFFFF;
   to_renderG = 0xFFFFFF;
   to_renderB = 0xFFFFFF;
  }//outer loop y
}
     a0c:	0f 90       	pop	r0
     a0e:	0f 90       	pop	r0
     a10:	df 91       	pop	r29
     a12:	cf 91       	pop	r28
     a14:	08 95       	ret

00000a16 <move_left>:


//movement and actions
void move_left()
{
     a16:	cf 93       	push	r28
     a18:	df 93       	push	r29
     a1a:	cd b7       	in	r28, 0x3d	; 61
     a1c:	de b7       	in	r29, 0x3e	; 62
	moving_left = 1;
     a1e:	81 e0       	ldi	r24, 0x01	; 1
     a20:	80 93 2d 06 	sts	0x062D, r24
	moving_right = 0;
     a24:	10 92 2e 06 	sts	0x062E, r1
   if(cur_level == 1)
     a28:	80 91 05 01 	lds	r24, 0x0105
     a2c:	81 30       	cpi	r24, 0x01	; 1
     a2e:	09 f0       	breq	.+2      	; 0xa32 <move_left+0x1c>
     a30:	40 c1       	rjmp	.+640    	; 0xcb2 <move_left+0x29c>
   {
	if(pos_x != 0 && level1[pos_y][pos_x-1] != TILE && level1[pos_y-1][pos_x-1] != TILE && level1[pos_y+1][pos_x] != 0 &&  level1[pos_y+1][pos_x] != EXIT_COLOR)
     a32:	80 91 07 01 	lds	r24, 0x0107
     a36:	88 23       	and	r24, r24
     a38:	09 f4       	brne	.+2      	; 0xa3c <move_left+0x26>
     a3a:	00 c1       	rjmp	.+512    	; 0xc3c <move_left+0x226>
     a3c:	80 91 08 01 	lds	r24, 0x0108
     a40:	48 2f       	mov	r20, r24
     a42:	55 27       	eor	r21, r21
     a44:	47 fd       	sbrc	r20, 7
     a46:	50 95       	com	r21
     a48:	80 91 07 01 	lds	r24, 0x0107
     a4c:	99 27       	eor	r25, r25
     a4e:	87 fd       	sbrc	r24, 7
     a50:	90 95       	com	r25
     a52:	01 97       	sbiw	r24, 0x01	; 1
     a54:	66 e8       	ldi	r22, 0x86	; 134
     a56:	64 9f       	mul	r22, r20
     a58:	90 01       	movw	r18, r0
     a5a:	65 9f       	mul	r22, r21
     a5c:	30 0d       	add	r19, r0
     a5e:	11 24       	eor	r1, r1
     a60:	82 0f       	add	r24, r18
     a62:	93 1f       	adc	r25, r19
     a64:	83 5e       	subi	r24, 0xE3	; 227
     a66:	9e 4f       	sbci	r25, 0xFE	; 254
     a68:	fc 01       	movw	r30, r24
     a6a:	80 81       	ld	r24, Z
     a6c:	86 30       	cpi	r24, 0x06	; 6
     a6e:	09 f4       	brne	.+2      	; 0xa72 <move_left+0x5c>
     a70:	e5 c0       	rjmp	.+458    	; 0xc3c <move_left+0x226>
     a72:	80 91 08 01 	lds	r24, 0x0108
     a76:	99 27       	eor	r25, r25
     a78:	87 fd       	sbrc	r24, 7
     a7a:	90 95       	com	r25
     a7c:	ac 01       	movw	r20, r24
     a7e:	41 50       	subi	r20, 0x01	; 1
     a80:	51 09       	sbc	r21, r1
     a82:	80 91 07 01 	lds	r24, 0x0107
     a86:	99 27       	eor	r25, r25
     a88:	87 fd       	sbrc	r24, 7
     a8a:	90 95       	com	r25
     a8c:	01 97       	sbiw	r24, 0x01	; 1
     a8e:	66 e8       	ldi	r22, 0x86	; 134
     a90:	64 9f       	mul	r22, r20
     a92:	90 01       	movw	r18, r0
     a94:	65 9f       	mul	r22, r21
     a96:	30 0d       	add	r19, r0
     a98:	11 24       	eor	r1, r1
     a9a:	82 0f       	add	r24, r18
     a9c:	93 1f       	adc	r25, r19
     a9e:	83 5e       	subi	r24, 0xE3	; 227
     aa0:	9e 4f       	sbci	r25, 0xFE	; 254
     aa2:	fc 01       	movw	r30, r24
     aa4:	80 81       	ld	r24, Z
     aa6:	86 30       	cpi	r24, 0x06	; 6
     aa8:	09 f4       	brne	.+2      	; 0xaac <move_left+0x96>
     aaa:	c8 c0       	rjmp	.+400    	; 0xc3c <move_left+0x226>
     aac:	80 91 08 01 	lds	r24, 0x0108
     ab0:	99 27       	eor	r25, r25
     ab2:	87 fd       	sbrc	r24, 7
     ab4:	90 95       	com	r25
     ab6:	ac 01       	movw	r20, r24
     ab8:	4f 5f       	subi	r20, 0xFF	; 255
     aba:	5f 4f       	sbci	r21, 0xFF	; 255
     abc:	80 91 07 01 	lds	r24, 0x0107
     ac0:	99 27       	eor	r25, r25
     ac2:	87 fd       	sbrc	r24, 7
     ac4:	90 95       	com	r25
     ac6:	66 e8       	ldi	r22, 0x86	; 134
     ac8:	64 9f       	mul	r22, r20
     aca:	90 01       	movw	r18, r0
     acc:	65 9f       	mul	r22, r21
     ace:	30 0d       	add	r19, r0
     ad0:	11 24       	eor	r1, r1
     ad2:	82 0f       	add	r24, r18
     ad4:	93 1f       	adc	r25, r19
     ad6:	83 5e       	subi	r24, 0xE3	; 227
     ad8:	9e 4f       	sbci	r25, 0xFE	; 254
     ada:	fc 01       	movw	r30, r24
     adc:	80 81       	ld	r24, Z
     ade:	88 23       	and	r24, r24
     ae0:	09 f4       	brne	.+2      	; 0xae4 <move_left+0xce>
     ae2:	ac c0       	rjmp	.+344    	; 0xc3c <move_left+0x226>
     ae4:	80 91 08 01 	lds	r24, 0x0108
     ae8:	99 27       	eor	r25, r25
     aea:	87 fd       	sbrc	r24, 7
     aec:	90 95       	com	r25
     aee:	ac 01       	movw	r20, r24
     af0:	4f 5f       	subi	r20, 0xFF	; 255
     af2:	5f 4f       	sbci	r21, 0xFF	; 255
     af4:	80 91 07 01 	lds	r24, 0x0107
     af8:	99 27       	eor	r25, r25
     afa:	87 fd       	sbrc	r24, 7
     afc:	90 95       	com	r25
     afe:	66 e8       	ldi	r22, 0x86	; 134
     b00:	64 9f       	mul	r22, r20
     b02:	90 01       	movw	r18, r0
     b04:	65 9f       	mul	r22, r21
     b06:	30 0d       	add	r19, r0
     b08:	11 24       	eor	r1, r1
     b0a:	82 0f       	add	r24, r18
     b0c:	93 1f       	adc	r25, r19
     b0e:	83 5e       	subi	r24, 0xE3	; 227
     b10:	9e 4f       	sbci	r25, 0xFE	; 254
     b12:	fc 01       	movw	r30, r24
     b14:	80 81       	ld	r24, Z
     b16:	85 30       	cpi	r24, 0x05	; 5
     b18:	09 f4       	brne	.+2      	; 0xb1c <move_left+0x106>
     b1a:	90 c0       	rjmp	.+288    	; 0xc3c <move_left+0x226>
	{
		  if(level1[pos_y][pos_x-1] == GREEN)
     b1c:	80 91 08 01 	lds	r24, 0x0108
     b20:	48 2f       	mov	r20, r24
     b22:	55 27       	eor	r21, r21
     b24:	47 fd       	sbrc	r20, 7
     b26:	50 95       	com	r21
     b28:	80 91 07 01 	lds	r24, 0x0107
     b2c:	99 27       	eor	r25, r25
     b2e:	87 fd       	sbrc	r24, 7
     b30:	90 95       	com	r25
     b32:	01 97       	sbiw	r24, 0x01	; 1
     b34:	66 e8       	ldi	r22, 0x86	; 134
     b36:	64 9f       	mul	r22, r20
     b38:	90 01       	movw	r18, r0
     b3a:	65 9f       	mul	r22, r21
     b3c:	30 0d       	add	r19, r0
     b3e:	11 24       	eor	r1, r1
     b40:	82 0f       	add	r24, r18
     b42:	93 1f       	adc	r25, r19
     b44:	83 5e       	subi	r24, 0xE3	; 227
     b46:	9e 4f       	sbci	r25, 0xFE	; 254
     b48:	fc 01       	movw	r30, r24
     b4a:	80 81       	ld	r24, Z
     b4c:	83 30       	cpi	r24, 0x03	; 3
     b4e:	29 f4       	brne	.+10     	; 0xb5a <move_left+0x144>
		  {
			  player_HP--;
     b50:	80 91 04 01 	lds	r24, 0x0104
     b54:	81 50       	subi	r24, 0x01	; 1
     b56:	80 93 04 01 	sts	0x0104, r24
		  }
		  
		  if(player_HP == 0)
     b5a:	80 91 04 01 	lds	r24, 0x0104
     b5e:	88 23       	and	r24, r24
     b60:	11 f4       	brne	.+4      	; 0xb66 <move_left+0x150>
		  {
			  reset();
     b62:	0e 94 2a 15 	call	0x2a54	; 0x2a54 <reset>
		  }
		has_moved = 1;
     b66:	81 e0       	ldi	r24, 0x01	; 1
     b68:	80 93 2a 06 	sts	0x062A, r24
		level1[pos_y][pos_x] = 0;
     b6c:	80 91 08 01 	lds	r24, 0x0108
     b70:	48 2f       	mov	r20, r24
     b72:	55 27       	eor	r21, r21
     b74:	47 fd       	sbrc	r20, 7
     b76:	50 95       	com	r21
     b78:	80 91 07 01 	lds	r24, 0x0107
     b7c:	99 27       	eor	r25, r25
     b7e:	87 fd       	sbrc	r24, 7
     b80:	90 95       	com	r25
     b82:	66 e8       	ldi	r22, 0x86	; 134
     b84:	64 9f       	mul	r22, r20
     b86:	90 01       	movw	r18, r0
     b88:	65 9f       	mul	r22, r21
     b8a:	30 0d       	add	r19, r0
     b8c:	11 24       	eor	r1, r1
     b8e:	82 0f       	add	r24, r18
     b90:	93 1f       	adc	r25, r19
     b92:	83 5e       	subi	r24, 0xE3	; 227
     b94:	9e 4f       	sbci	r25, 0xFE	; 254
     b96:	fc 01       	movw	r30, r24
     b98:	10 82       	st	Z, r1
		level1[pos_y-1][pos_x] = 0;
     b9a:	80 91 08 01 	lds	r24, 0x0108
     b9e:	99 27       	eor	r25, r25
     ba0:	87 fd       	sbrc	r24, 7
     ba2:	90 95       	com	r25
     ba4:	ac 01       	movw	r20, r24
     ba6:	41 50       	subi	r20, 0x01	; 1
     ba8:	51 09       	sbc	r21, r1
     baa:	80 91 07 01 	lds	r24, 0x0107
     bae:	99 27       	eor	r25, r25
     bb0:	87 fd       	sbrc	r24, 7
     bb2:	90 95       	com	r25
     bb4:	66 e8       	ldi	r22, 0x86	; 134
     bb6:	64 9f       	mul	r22, r20
     bb8:	90 01       	movw	r18, r0
     bba:	65 9f       	mul	r22, r21
     bbc:	30 0d       	add	r19, r0
     bbe:	11 24       	eor	r1, r1
     bc0:	82 0f       	add	r24, r18
     bc2:	93 1f       	adc	r25, r19
     bc4:	83 5e       	subi	r24, 0xE3	; 227
     bc6:	9e 4f       	sbci	r25, 0xFE	; 254
     bc8:	fc 01       	movw	r30, r24
     bca:	10 82       	st	Z, r1
		pos_x--;
     bcc:	80 91 07 01 	lds	r24, 0x0107
     bd0:	81 50       	subi	r24, 0x01	; 1
     bd2:	80 93 07 01 	sts	0x0107, r24
		level1[pos_y][pos_x] = YELLOW;
     bd6:	80 91 08 01 	lds	r24, 0x0108
     bda:	48 2f       	mov	r20, r24
     bdc:	55 27       	eor	r21, r21
     bde:	47 fd       	sbrc	r20, 7
     be0:	50 95       	com	r21
     be2:	80 91 07 01 	lds	r24, 0x0107
     be6:	99 27       	eor	r25, r25
     be8:	87 fd       	sbrc	r24, 7
     bea:	90 95       	com	r25
     bec:	66 e8       	ldi	r22, 0x86	; 134
     bee:	64 9f       	mul	r22, r20
     bf0:	90 01       	movw	r18, r0
     bf2:	65 9f       	mul	r22, r21
     bf4:	30 0d       	add	r19, r0
     bf6:	11 24       	eor	r1, r1
     bf8:	82 0f       	add	r24, r18
     bfa:	93 1f       	adc	r25, r19
     bfc:	83 5e       	subi	r24, 0xE3	; 227
     bfe:	9e 4f       	sbci	r25, 0xFE	; 254
     c00:	27 e0       	ldi	r18, 0x07	; 7
     c02:	fc 01       	movw	r30, r24
     c04:	20 83       	st	Z, r18
		level1[pos_y-1][pos_x] = YELLOW;
     c06:	80 91 08 01 	lds	r24, 0x0108
     c0a:	99 27       	eor	r25, r25
     c0c:	87 fd       	sbrc	r24, 7
     c0e:	90 95       	com	r25
     c10:	ac 01       	movw	r20, r24
     c12:	41 50       	subi	r20, 0x01	; 1
     c14:	51 09       	sbc	r21, r1
     c16:	80 91 07 01 	lds	r24, 0x0107
     c1a:	99 27       	eor	r25, r25
     c1c:	87 fd       	sbrc	r24, 7
     c1e:	90 95       	com	r25
     c20:	66 e8       	ldi	r22, 0x86	; 134
     c22:	64 9f       	mul	r22, r20
     c24:	90 01       	movw	r18, r0
     c26:	65 9f       	mul	r22, r21
     c28:	30 0d       	add	r19, r0
     c2a:	11 24       	eor	r1, r1
     c2c:	82 0f       	add	r24, r18
     c2e:	93 1f       	adc	r25, r19
     c30:	83 5e       	subi	r24, 0xE3	; 227
     c32:	9e 4f       	sbci	r25, 0xFE	; 254
     c34:	27 e0       	ldi	r18, 0x07	; 7
     c36:	fc 01       	movw	r30, r24
     c38:	20 83       	st	Z, r18
     c3a:	3b c0       	rjmp	.+118    	; 0xcb2 <move_left+0x29c>
	}
	else if(level1[pos_y+1][pos_x-1] == EXIT_COLOR)
     c3c:	80 91 08 01 	lds	r24, 0x0108
     c40:	99 27       	eor	r25, r25
     c42:	87 fd       	sbrc	r24, 7
     c44:	90 95       	com	r25
     c46:	ac 01       	movw	r20, r24
     c48:	4f 5f       	subi	r20, 0xFF	; 255
     c4a:	5f 4f       	sbci	r21, 0xFF	; 255
     c4c:	80 91 07 01 	lds	r24, 0x0107
     c50:	99 27       	eor	r25, r25
     c52:	87 fd       	sbrc	r24, 7
     c54:	90 95       	com	r25
     c56:	01 97       	sbiw	r24, 0x01	; 1
     c58:	66 e8       	ldi	r22, 0x86	; 134
     c5a:	64 9f       	mul	r22, r20
     c5c:	90 01       	movw	r18, r0
     c5e:	65 9f       	mul	r22, r21
     c60:	30 0d       	add	r19, r0
     c62:	11 24       	eor	r1, r1
     c64:	82 0f       	add	r24, r18
     c66:	93 1f       	adc	r25, r19
     c68:	83 5e       	subi	r24, 0xE3	; 227
     c6a:	9e 4f       	sbci	r25, 0xFE	; 254
     c6c:	fc 01       	movw	r30, r24
     c6e:	80 81       	ld	r24, Z
     c70:	85 30       	cpi	r24, 0x05	; 5
     c72:	19 f4       	brne	.+6      	; 0xc7a <move_left+0x264>
	{
	  next_level();
     c74:	0e 94 4f 15 	call	0x2a9e	; 0x2a9e <next_level>
     c78:	1c c0       	rjmp	.+56     	; 0xcb2 <move_left+0x29c>
	}
	else if(level1[pos_y+1][pos_x] == 0)
     c7a:	80 91 08 01 	lds	r24, 0x0108
     c7e:	99 27       	eor	r25, r25
     c80:	87 fd       	sbrc	r24, 7
     c82:	90 95       	com	r25
     c84:	ac 01       	movw	r20, r24
     c86:	4f 5f       	subi	r20, 0xFF	; 255
     c88:	5f 4f       	sbci	r21, 0xFF	; 255
     c8a:	80 91 07 01 	lds	r24, 0x0107
     c8e:	99 27       	eor	r25, r25
     c90:	87 fd       	sbrc	r24, 7
     c92:	90 95       	com	r25
     c94:	66 e8       	ldi	r22, 0x86	; 134
     c96:	64 9f       	mul	r22, r20
     c98:	90 01       	movw	r18, r0
     c9a:	65 9f       	mul	r22, r21
     c9c:	30 0d       	add	r19, r0
     c9e:	11 24       	eor	r1, r1
     ca0:	82 0f       	add	r24, r18
     ca2:	93 1f       	adc	r25, r19
     ca4:	83 5e       	subi	r24, 0xE3	; 227
     ca6:	9e 4f       	sbci	r25, 0xFE	; 254
     ca8:	fc 01       	movw	r30, r24
     caa:	80 81       	ld	r24, Z
     cac:	88 23       	and	r24, r24
     cae:	09 f4       	brne	.+2      	; 0xcb2 <move_left+0x29c>
	{
	  fall();
     cb0:	bf d3       	rcall	.+1918   	; 0x1430 <fall>
	}
   }
   if(cur_level == 2)
     cb2:	80 91 05 01 	lds	r24, 0x0105
     cb6:	82 30       	cpi	r24, 0x02	; 2
     cb8:	09 f0       	breq	.+2      	; 0xcbc <move_left+0x2a6>
     cba:	05 c1       	rjmp	.+522    	; 0xec6 <move_left+0x4b0>
   {
	   if(pos_x != 0 && level2[pos_y][pos_x-1] != TILE && level2[pos_y-1][pos_x-1] != TILE && level2[pos_y+1][pos_x] != 0)
     cbc:	80 91 07 01 	lds	r24, 0x0107
     cc0:	88 23       	and	r24, r24
     cc2:	09 f4       	brne	.+2      	; 0xcc6 <move_left+0x2b0>
     cc4:	e4 c0       	rjmp	.+456    	; 0xe8e <move_left+0x478>
     cc6:	80 91 08 01 	lds	r24, 0x0108
     cca:	48 2f       	mov	r20, r24
     ccc:	55 27       	eor	r21, r21
     cce:	47 fd       	sbrc	r20, 7
     cd0:	50 95       	com	r21
     cd2:	80 91 07 01 	lds	r24, 0x0107
     cd6:	99 27       	eor	r25, r25
     cd8:	87 fd       	sbrc	r24, 7
     cda:	90 95       	com	r25
     cdc:	01 97       	sbiw	r24, 0x01	; 1
     cde:	64 e1       	ldi	r22, 0x14	; 20
     ce0:	64 9f       	mul	r22, r20
     ce2:	90 01       	movw	r18, r0
     ce4:	65 9f       	mul	r22, r21
     ce6:	30 0d       	add	r19, r0
     ce8:	11 24       	eor	r1, r1
     cea:	82 0f       	add	r24, r18
     cec:	93 1f       	adc	r25, r19
     cee:	83 5b       	subi	r24, 0xB3	; 179
     cf0:	9a 4f       	sbci	r25, 0xFA	; 250
     cf2:	fc 01       	movw	r30, r24
     cf4:	80 81       	ld	r24, Z
     cf6:	86 30       	cpi	r24, 0x06	; 6
     cf8:	09 f4       	brne	.+2      	; 0xcfc <move_left+0x2e6>
     cfa:	c9 c0       	rjmp	.+402    	; 0xe8e <move_left+0x478>
     cfc:	80 91 08 01 	lds	r24, 0x0108
     d00:	99 27       	eor	r25, r25
     d02:	87 fd       	sbrc	r24, 7
     d04:	90 95       	com	r25
     d06:	ac 01       	movw	r20, r24
     d08:	41 50       	subi	r20, 0x01	; 1
     d0a:	51 09       	sbc	r21, r1
     d0c:	80 91 07 01 	lds	r24, 0x0107
     d10:	99 27       	eor	r25, r25
     d12:	87 fd       	sbrc	r24, 7
     d14:	90 95       	com	r25
     d16:	01 97       	sbiw	r24, 0x01	; 1
     d18:	64 e1       	ldi	r22, 0x14	; 20
     d1a:	64 9f       	mul	r22, r20
     d1c:	90 01       	movw	r18, r0
     d1e:	65 9f       	mul	r22, r21
     d20:	30 0d       	add	r19, r0
     d22:	11 24       	eor	r1, r1
     d24:	82 0f       	add	r24, r18
     d26:	93 1f       	adc	r25, r19
     d28:	83 5b       	subi	r24, 0xB3	; 179
     d2a:	9a 4f       	sbci	r25, 0xFA	; 250
     d2c:	fc 01       	movw	r30, r24
     d2e:	80 81       	ld	r24, Z
     d30:	86 30       	cpi	r24, 0x06	; 6
     d32:	09 f4       	brne	.+2      	; 0xd36 <move_left+0x320>
     d34:	ac c0       	rjmp	.+344    	; 0xe8e <move_left+0x478>
     d36:	80 91 08 01 	lds	r24, 0x0108
     d3a:	99 27       	eor	r25, r25
     d3c:	87 fd       	sbrc	r24, 7
     d3e:	90 95       	com	r25
     d40:	ac 01       	movw	r20, r24
     d42:	4f 5f       	subi	r20, 0xFF	; 255
     d44:	5f 4f       	sbci	r21, 0xFF	; 255
     d46:	80 91 07 01 	lds	r24, 0x0107
     d4a:	99 27       	eor	r25, r25
     d4c:	87 fd       	sbrc	r24, 7
     d4e:	90 95       	com	r25
     d50:	64 e1       	ldi	r22, 0x14	; 20
     d52:	64 9f       	mul	r22, r20
     d54:	90 01       	movw	r18, r0
     d56:	65 9f       	mul	r22, r21
     d58:	30 0d       	add	r19, r0
     d5a:	11 24       	eor	r1, r1
     d5c:	82 0f       	add	r24, r18
     d5e:	93 1f       	adc	r25, r19
     d60:	83 5b       	subi	r24, 0xB3	; 179
     d62:	9a 4f       	sbci	r25, 0xFA	; 250
     d64:	fc 01       	movw	r30, r24
     d66:	80 81       	ld	r24, Z
     d68:	88 23       	and	r24, r24
     d6a:	09 f4       	brne	.+2      	; 0xd6e <move_left+0x358>
     d6c:	90 c0       	rjmp	.+288    	; 0xe8e <move_left+0x478>
	   {
		   if(level2[pos_y][pos_x-1] == GREEN)
     d6e:	80 91 08 01 	lds	r24, 0x0108
     d72:	48 2f       	mov	r20, r24
     d74:	55 27       	eor	r21, r21
     d76:	47 fd       	sbrc	r20, 7
     d78:	50 95       	com	r21
     d7a:	80 91 07 01 	lds	r24, 0x0107
     d7e:	99 27       	eor	r25, r25
     d80:	87 fd       	sbrc	r24, 7
     d82:	90 95       	com	r25
     d84:	01 97       	sbiw	r24, 0x01	; 1
     d86:	64 e1       	ldi	r22, 0x14	; 20
     d88:	64 9f       	mul	r22, r20
     d8a:	90 01       	movw	r18, r0
     d8c:	65 9f       	mul	r22, r21
     d8e:	30 0d       	add	r19, r0
     d90:	11 24       	eor	r1, r1
     d92:	82 0f       	add	r24, r18
     d94:	93 1f       	adc	r25, r19
     d96:	83 5b       	subi	r24, 0xB3	; 179
     d98:	9a 4f       	sbci	r25, 0xFA	; 250
     d9a:	fc 01       	movw	r30, r24
     d9c:	80 81       	ld	r24, Z
     d9e:	83 30       	cpi	r24, 0x03	; 3
     da0:	29 f4       	brne	.+10     	; 0xdac <move_left+0x396>
		   {
			   player_HP--;
     da2:	80 91 04 01 	lds	r24, 0x0104
     da6:	81 50       	subi	r24, 0x01	; 1
     da8:	80 93 04 01 	sts	0x0104, r24
		   }
		   
		   if(player_HP == 0)
     dac:	80 91 04 01 	lds	r24, 0x0104
     db0:	88 23       	and	r24, r24
     db2:	11 f4       	brne	.+4      	; 0xdb8 <move_left+0x3a2>
		   {
			   reset();
     db4:	0e 94 2a 15 	call	0x2a54	; 0x2a54 <reset>
		   }
		   has_moved = 1;
     db8:	81 e0       	ldi	r24, 0x01	; 1
     dba:	80 93 2a 06 	sts	0x062A, r24
		   level2[pos_y][pos_x] = 0;
     dbe:	80 91 08 01 	lds	r24, 0x0108
     dc2:	48 2f       	mov	r20, r24
     dc4:	55 27       	eor	r21, r21
     dc6:	47 fd       	sbrc	r20, 7
     dc8:	50 95       	com	r21
     dca:	80 91 07 01 	lds	r24, 0x0107
     dce:	99 27       	eor	r25, r25
     dd0:	87 fd       	sbrc	r24, 7
     dd2:	90 95       	com	r25
     dd4:	64 e1       	ldi	r22, 0x14	; 20
     dd6:	64 9f       	mul	r22, r20
     dd8:	90 01       	movw	r18, r0
     dda:	65 9f       	mul	r22, r21
     ddc:	30 0d       	add	r19, r0
     dde:	11 24       	eor	r1, r1
     de0:	82 0f       	add	r24, r18
     de2:	93 1f       	adc	r25, r19
     de4:	83 5b       	subi	r24, 0xB3	; 179
     de6:	9a 4f       	sbci	r25, 0xFA	; 250
     de8:	fc 01       	movw	r30, r24
     dea:	10 82       	st	Z, r1
		   level2[pos_y-1][pos_x] = 0;
     dec:	80 91 08 01 	lds	r24, 0x0108
     df0:	99 27       	eor	r25, r25
     df2:	87 fd       	sbrc	r24, 7
     df4:	90 95       	com	r25
     df6:	ac 01       	movw	r20, r24
     df8:	41 50       	subi	r20, 0x01	; 1
     dfa:	51 09       	sbc	r21, r1
     dfc:	80 91 07 01 	lds	r24, 0x0107
     e00:	99 27       	eor	r25, r25
     e02:	87 fd       	sbrc	r24, 7
     e04:	90 95       	com	r25
     e06:	64 e1       	ldi	r22, 0x14	; 20
     e08:	64 9f       	mul	r22, r20
     e0a:	90 01       	movw	r18, r0
     e0c:	65 9f       	mul	r22, r21
     e0e:	30 0d       	add	r19, r0
     e10:	11 24       	eor	r1, r1
     e12:	82 0f       	add	r24, r18
     e14:	93 1f       	adc	r25, r19
     e16:	83 5b       	subi	r24, 0xB3	; 179
     e18:	9a 4f       	sbci	r25, 0xFA	; 250
     e1a:	fc 01       	movw	r30, r24
     e1c:	10 82       	st	Z, r1
		   pos_x--;
     e1e:	80 91 07 01 	lds	r24, 0x0107
     e22:	81 50       	subi	r24, 0x01	; 1
     e24:	80 93 07 01 	sts	0x0107, r24
		   level2[pos_y][pos_x] = YELLOW;
     e28:	80 91 08 01 	lds	r24, 0x0108
     e2c:	48 2f       	mov	r20, r24
     e2e:	55 27       	eor	r21, r21
     e30:	47 fd       	sbrc	r20, 7
     e32:	50 95       	com	r21
     e34:	80 91 07 01 	lds	r24, 0x0107
     e38:	99 27       	eor	r25, r25
     e3a:	87 fd       	sbrc	r24, 7
     e3c:	90 95       	com	r25
     e3e:	64 e1       	ldi	r22, 0x14	; 20
     e40:	64 9f       	mul	r22, r20
     e42:	90 01       	movw	r18, r0
     e44:	65 9f       	mul	r22, r21
     e46:	30 0d       	add	r19, r0
     e48:	11 24       	eor	r1, r1
     e4a:	82 0f       	add	r24, r18
     e4c:	93 1f       	adc	r25, r19
     e4e:	83 5b       	subi	r24, 0xB3	; 179
     e50:	9a 4f       	sbci	r25, 0xFA	; 250
     e52:	27 e0       	ldi	r18, 0x07	; 7
     e54:	fc 01       	movw	r30, r24
     e56:	20 83       	st	Z, r18
		   level2[pos_y-1][pos_x] = YELLOW;
     e58:	80 91 08 01 	lds	r24, 0x0108
     e5c:	99 27       	eor	r25, r25
     e5e:	87 fd       	sbrc	r24, 7
     e60:	90 95       	com	r25
     e62:	ac 01       	movw	r20, r24
     e64:	41 50       	subi	r20, 0x01	; 1
     e66:	51 09       	sbc	r21, r1
     e68:	80 91 07 01 	lds	r24, 0x0107
     e6c:	99 27       	eor	r25, r25
     e6e:	87 fd       	sbrc	r24, 7
     e70:	90 95       	com	r25
     e72:	64 e1       	ldi	r22, 0x14	; 20
     e74:	64 9f       	mul	r22, r20
     e76:	90 01       	movw	r18, r0
     e78:	65 9f       	mul	r22, r21
     e7a:	30 0d       	add	r19, r0
     e7c:	11 24       	eor	r1, r1
     e7e:	82 0f       	add	r24, r18
     e80:	93 1f       	adc	r25, r19
     e82:	83 5b       	subi	r24, 0xB3	; 179
     e84:	9a 4f       	sbci	r25, 0xFA	; 250
     e86:	27 e0       	ldi	r18, 0x07	; 7
     e88:	fc 01       	movw	r30, r24
     e8a:	20 83       	st	Z, r18
     e8c:	1c c0       	rjmp	.+56     	; 0xec6 <move_left+0x4b0>
	   }
	   else if(level2[pos_y+1][pos_x] == 0)
     e8e:	80 91 08 01 	lds	r24, 0x0108
     e92:	99 27       	eor	r25, r25
     e94:	87 fd       	sbrc	r24, 7
     e96:	90 95       	com	r25
     e98:	ac 01       	movw	r20, r24
     e9a:	4f 5f       	subi	r20, 0xFF	; 255
     e9c:	5f 4f       	sbci	r21, 0xFF	; 255
     e9e:	80 91 07 01 	lds	r24, 0x0107
     ea2:	99 27       	eor	r25, r25
     ea4:	87 fd       	sbrc	r24, 7
     ea6:	90 95       	com	r25
     ea8:	64 e1       	ldi	r22, 0x14	; 20
     eaa:	64 9f       	mul	r22, r20
     eac:	90 01       	movw	r18, r0
     eae:	65 9f       	mul	r22, r21
     eb0:	30 0d       	add	r19, r0
     eb2:	11 24       	eor	r1, r1
     eb4:	82 0f       	add	r24, r18
     eb6:	93 1f       	adc	r25, r19
     eb8:	83 5b       	subi	r24, 0xB3	; 179
     eba:	9a 4f       	sbci	r25, 0xFA	; 250
     ebc:	fc 01       	movw	r30, r24
     ebe:	80 81       	ld	r24, Z
     ec0:	88 23       	and	r24, r24
     ec2:	09 f4       	brne	.+2      	; 0xec6 <move_left+0x4b0>
	   {
		fall();   
     ec4:	b5 d2       	rcall	.+1386   	; 0x1430 <fall>
	   }
   }
   
}
     ec6:	df 91       	pop	r29
     ec8:	cf 91       	pop	r28
     eca:	08 95       	ret

00000ecc <move_right>:

void move_right()
{
     ecc:	cf 93       	push	r28
     ece:	df 93       	push	r29
     ed0:	cd b7       	in	r28, 0x3d	; 61
     ed2:	de b7       	in	r29, 0x3e	; 62
		moving_left = 0;
     ed4:	10 92 2d 06 	sts	0x062D, r1
		moving_right = 1;
     ed8:	81 e0       	ldi	r24, 0x01	; 1
     eda:	80 93 2e 06 	sts	0x062E, r24
	if(cur_level == 1)
     ede:	80 91 05 01 	lds	r24, 0x0105
     ee2:	81 30       	cpi	r24, 0x01	; 1
     ee4:	09 f0       	breq	.+2      	; 0xee8 <move_right+0x1c>
     ee6:	10 c1       	rjmp	.+544    	; 0x1108 <move_right+0x23c>
	{
	 	//does not equal level length
	 	if(pos_x+1 != lvl_sizes[0] && level1[pos_y][pos_x+1] != TILE &&  level1[pos_y-1][pos_x+1] != TILE && level1[pos_y+1][pos_x] != 0)//cannot move through tile
     ee8:	80 91 07 01 	lds	r24, 0x0107
     eec:	99 27       	eor	r25, r25
     eee:	87 fd       	sbrc	r24, 7
     ef0:	90 95       	com	r25
     ef2:	9c 01       	movw	r18, r24
     ef4:	2f 5f       	subi	r18, 0xFF	; 255
     ef6:	3f 4f       	sbci	r19, 0xFF	; 255
     ef8:	80 91 ed 05 	lds	r24, 0x05ED
     efc:	88 2f       	mov	r24, r24
     efe:	90 e0       	ldi	r25, 0x00	; 0
     f00:	28 17       	cp	r18, r24
     f02:	39 07       	cpc	r19, r25
     f04:	09 f4       	brne	.+2      	; 0xf08 <move_right+0x3c>
     f06:	e4 c0       	rjmp	.+456    	; 0x10d0 <move_right+0x204>
     f08:	80 91 08 01 	lds	r24, 0x0108
     f0c:	48 2f       	mov	r20, r24
     f0e:	55 27       	eor	r21, r21
     f10:	47 fd       	sbrc	r20, 7
     f12:	50 95       	com	r21
     f14:	80 91 07 01 	lds	r24, 0x0107
     f18:	99 27       	eor	r25, r25
     f1a:	87 fd       	sbrc	r24, 7
     f1c:	90 95       	com	r25
     f1e:	01 96       	adiw	r24, 0x01	; 1
     f20:	66 e8       	ldi	r22, 0x86	; 134
     f22:	64 9f       	mul	r22, r20
     f24:	90 01       	movw	r18, r0
     f26:	65 9f       	mul	r22, r21
     f28:	30 0d       	add	r19, r0
     f2a:	11 24       	eor	r1, r1
     f2c:	82 0f       	add	r24, r18
     f2e:	93 1f       	adc	r25, r19
     f30:	83 5e       	subi	r24, 0xE3	; 227
     f32:	9e 4f       	sbci	r25, 0xFE	; 254
     f34:	fc 01       	movw	r30, r24
     f36:	80 81       	ld	r24, Z
     f38:	86 30       	cpi	r24, 0x06	; 6
     f3a:	09 f4       	brne	.+2      	; 0xf3e <move_right+0x72>
     f3c:	c9 c0       	rjmp	.+402    	; 0x10d0 <move_right+0x204>
     f3e:	80 91 08 01 	lds	r24, 0x0108
     f42:	99 27       	eor	r25, r25
     f44:	87 fd       	sbrc	r24, 7
     f46:	90 95       	com	r25
     f48:	ac 01       	movw	r20, r24
     f4a:	41 50       	subi	r20, 0x01	; 1
     f4c:	51 09       	sbc	r21, r1
     f4e:	80 91 07 01 	lds	r24, 0x0107
     f52:	99 27       	eor	r25, r25
     f54:	87 fd       	sbrc	r24, 7
     f56:	90 95       	com	r25
     f58:	01 96       	adiw	r24, 0x01	; 1
     f5a:	66 e8       	ldi	r22, 0x86	; 134
     f5c:	64 9f       	mul	r22, r20
     f5e:	90 01       	movw	r18, r0
     f60:	65 9f       	mul	r22, r21
     f62:	30 0d       	add	r19, r0
     f64:	11 24       	eor	r1, r1
     f66:	82 0f       	add	r24, r18
     f68:	93 1f       	adc	r25, r19
     f6a:	83 5e       	subi	r24, 0xE3	; 227
     f6c:	9e 4f       	sbci	r25, 0xFE	; 254
     f6e:	fc 01       	movw	r30, r24
     f70:	80 81       	ld	r24, Z
     f72:	86 30       	cpi	r24, 0x06	; 6
     f74:	09 f4       	brne	.+2      	; 0xf78 <move_right+0xac>
     f76:	ac c0       	rjmp	.+344    	; 0x10d0 <move_right+0x204>
     f78:	80 91 08 01 	lds	r24, 0x0108
     f7c:	99 27       	eor	r25, r25
     f7e:	87 fd       	sbrc	r24, 7
     f80:	90 95       	com	r25
     f82:	ac 01       	movw	r20, r24
     f84:	4f 5f       	subi	r20, 0xFF	; 255
     f86:	5f 4f       	sbci	r21, 0xFF	; 255
     f88:	80 91 07 01 	lds	r24, 0x0107
     f8c:	99 27       	eor	r25, r25
     f8e:	87 fd       	sbrc	r24, 7
     f90:	90 95       	com	r25
     f92:	66 e8       	ldi	r22, 0x86	; 134
     f94:	64 9f       	mul	r22, r20
     f96:	90 01       	movw	r18, r0
     f98:	65 9f       	mul	r22, r21
     f9a:	30 0d       	add	r19, r0
     f9c:	11 24       	eor	r1, r1
     f9e:	82 0f       	add	r24, r18
     fa0:	93 1f       	adc	r25, r19
     fa2:	83 5e       	subi	r24, 0xE3	; 227
     fa4:	9e 4f       	sbci	r25, 0xFE	; 254
     fa6:	fc 01       	movw	r30, r24
     fa8:	80 81       	ld	r24, Z
     faa:	88 23       	and	r24, r24
     fac:	09 f4       	brne	.+2      	; 0xfb0 <move_right+0xe4>
     fae:	90 c0       	rjmp	.+288    	; 0x10d0 <move_right+0x204>
	 	{
			 if(level1[pos_y][pos_x+1] == GREEN)
     fb0:	80 91 08 01 	lds	r24, 0x0108
     fb4:	48 2f       	mov	r20, r24
     fb6:	55 27       	eor	r21, r21
     fb8:	47 fd       	sbrc	r20, 7
     fba:	50 95       	com	r21
     fbc:	80 91 07 01 	lds	r24, 0x0107
     fc0:	99 27       	eor	r25, r25
     fc2:	87 fd       	sbrc	r24, 7
     fc4:	90 95       	com	r25
     fc6:	01 96       	adiw	r24, 0x01	; 1
     fc8:	66 e8       	ldi	r22, 0x86	; 134
     fca:	64 9f       	mul	r22, r20
     fcc:	90 01       	movw	r18, r0
     fce:	65 9f       	mul	r22, r21
     fd0:	30 0d       	add	r19, r0
     fd2:	11 24       	eor	r1, r1
     fd4:	82 0f       	add	r24, r18
     fd6:	93 1f       	adc	r25, r19
     fd8:	83 5e       	subi	r24, 0xE3	; 227
     fda:	9e 4f       	sbci	r25, 0xFE	; 254
     fdc:	fc 01       	movw	r30, r24
     fde:	80 81       	ld	r24, Z
     fe0:	83 30       	cpi	r24, 0x03	; 3
     fe2:	29 f4       	brne	.+10     	; 0xfee <move_right+0x122>
			 {
				 player_HP--;
     fe4:	80 91 04 01 	lds	r24, 0x0104
     fe8:	81 50       	subi	r24, 0x01	; 1
     fea:	80 93 04 01 	sts	0x0104, r24
			 }
			 if(player_HP == 0)
     fee:	80 91 04 01 	lds	r24, 0x0104
     ff2:	88 23       	and	r24, r24
     ff4:	11 f4       	brne	.+4      	; 0xffa <move_right+0x12e>
			 {
				 reset();
     ff6:	0e 94 2a 15 	call	0x2a54	; 0x2a54 <reset>
			 }
			 has_moved = 1;
     ffa:	81 e0       	ldi	r24, 0x01	; 1
     ffc:	80 93 2a 06 	sts	0x062A, r24
		 	level1[pos_y][pos_x] = 0;
    1000:	80 91 08 01 	lds	r24, 0x0108
    1004:	48 2f       	mov	r20, r24
    1006:	55 27       	eor	r21, r21
    1008:	47 fd       	sbrc	r20, 7
    100a:	50 95       	com	r21
    100c:	80 91 07 01 	lds	r24, 0x0107
    1010:	99 27       	eor	r25, r25
    1012:	87 fd       	sbrc	r24, 7
    1014:	90 95       	com	r25
    1016:	66 e8       	ldi	r22, 0x86	; 134
    1018:	64 9f       	mul	r22, r20
    101a:	90 01       	movw	r18, r0
    101c:	65 9f       	mul	r22, r21
    101e:	30 0d       	add	r19, r0
    1020:	11 24       	eor	r1, r1
    1022:	82 0f       	add	r24, r18
    1024:	93 1f       	adc	r25, r19
    1026:	83 5e       	subi	r24, 0xE3	; 227
    1028:	9e 4f       	sbci	r25, 0xFE	; 254
    102a:	fc 01       	movw	r30, r24
    102c:	10 82       	st	Z, r1
		 	level1[pos_y-1][pos_x] = 0;
    102e:	80 91 08 01 	lds	r24, 0x0108
    1032:	99 27       	eor	r25, r25
    1034:	87 fd       	sbrc	r24, 7
    1036:	90 95       	com	r25
    1038:	ac 01       	movw	r20, r24
    103a:	41 50       	subi	r20, 0x01	; 1
    103c:	51 09       	sbc	r21, r1
    103e:	80 91 07 01 	lds	r24, 0x0107
    1042:	99 27       	eor	r25, r25
    1044:	87 fd       	sbrc	r24, 7
    1046:	90 95       	com	r25
    1048:	66 e8       	ldi	r22, 0x86	; 134
    104a:	64 9f       	mul	r22, r20
    104c:	90 01       	movw	r18, r0
    104e:	65 9f       	mul	r22, r21
    1050:	30 0d       	add	r19, r0
    1052:	11 24       	eor	r1, r1
    1054:	82 0f       	add	r24, r18
    1056:	93 1f       	adc	r25, r19
    1058:	83 5e       	subi	r24, 0xE3	; 227
    105a:	9e 4f       	sbci	r25, 0xFE	; 254
    105c:	fc 01       	movw	r30, r24
    105e:	10 82       	st	Z, r1
		 	pos_x++;
    1060:	80 91 07 01 	lds	r24, 0x0107
    1064:	8f 5f       	subi	r24, 0xFF	; 255
    1066:	80 93 07 01 	sts	0x0107, r24
		 	level1[pos_y][pos_x] = YELLOW;
    106a:	80 91 08 01 	lds	r24, 0x0108
    106e:	48 2f       	mov	r20, r24
    1070:	55 27       	eor	r21, r21
    1072:	47 fd       	sbrc	r20, 7
    1074:	50 95       	com	r21
    1076:	80 91 07 01 	lds	r24, 0x0107
    107a:	99 27       	eor	r25, r25
    107c:	87 fd       	sbrc	r24, 7
    107e:	90 95       	com	r25
    1080:	66 e8       	ldi	r22, 0x86	; 134
    1082:	64 9f       	mul	r22, r20
    1084:	90 01       	movw	r18, r0
    1086:	65 9f       	mul	r22, r21
    1088:	30 0d       	add	r19, r0
    108a:	11 24       	eor	r1, r1
    108c:	82 0f       	add	r24, r18
    108e:	93 1f       	adc	r25, r19
    1090:	83 5e       	subi	r24, 0xE3	; 227
    1092:	9e 4f       	sbci	r25, 0xFE	; 254
    1094:	27 e0       	ldi	r18, 0x07	; 7
    1096:	fc 01       	movw	r30, r24
    1098:	20 83       	st	Z, r18
		 	level1[pos_y-1][pos_x] = YELLOW;
    109a:	80 91 08 01 	lds	r24, 0x0108
    109e:	99 27       	eor	r25, r25
    10a0:	87 fd       	sbrc	r24, 7
    10a2:	90 95       	com	r25
    10a4:	ac 01       	movw	r20, r24
    10a6:	41 50       	subi	r20, 0x01	; 1
    10a8:	51 09       	sbc	r21, r1
    10aa:	80 91 07 01 	lds	r24, 0x0107
    10ae:	99 27       	eor	r25, r25
    10b0:	87 fd       	sbrc	r24, 7
    10b2:	90 95       	com	r25
    10b4:	66 e8       	ldi	r22, 0x86	; 134
    10b6:	64 9f       	mul	r22, r20
    10b8:	90 01       	movw	r18, r0
    10ba:	65 9f       	mul	r22, r21
    10bc:	30 0d       	add	r19, r0
    10be:	11 24       	eor	r1, r1
    10c0:	82 0f       	add	r24, r18
    10c2:	93 1f       	adc	r25, r19
    10c4:	83 5e       	subi	r24, 0xE3	; 227
    10c6:	9e 4f       	sbci	r25, 0xFE	; 254
    10c8:	27 e0       	ldi	r18, 0x07	; 7
    10ca:	fc 01       	movw	r30, r24
    10cc:	20 83       	st	Z, r18
    10ce:	1c c0       	rjmp	.+56     	; 0x1108 <move_right+0x23c>
	 	}
		else if(level1[pos_y+1][pos_x] == 0)
    10d0:	80 91 08 01 	lds	r24, 0x0108
    10d4:	99 27       	eor	r25, r25
    10d6:	87 fd       	sbrc	r24, 7
    10d8:	90 95       	com	r25
    10da:	ac 01       	movw	r20, r24
    10dc:	4f 5f       	subi	r20, 0xFF	; 255
    10de:	5f 4f       	sbci	r21, 0xFF	; 255
    10e0:	80 91 07 01 	lds	r24, 0x0107
    10e4:	99 27       	eor	r25, r25
    10e6:	87 fd       	sbrc	r24, 7
    10e8:	90 95       	com	r25
    10ea:	66 e8       	ldi	r22, 0x86	; 134
    10ec:	64 9f       	mul	r22, r20
    10ee:	90 01       	movw	r18, r0
    10f0:	65 9f       	mul	r22, r21
    10f2:	30 0d       	add	r19, r0
    10f4:	11 24       	eor	r1, r1
    10f6:	82 0f       	add	r24, r18
    10f8:	93 1f       	adc	r25, r19
    10fa:	83 5e       	subi	r24, 0xE3	; 227
    10fc:	9e 4f       	sbci	r25, 0xFE	; 254
    10fe:	fc 01       	movw	r30, r24
    1100:	80 81       	ld	r24, Z
    1102:	88 23       	and	r24, r24
    1104:	09 f4       	brne	.+2      	; 0x1108 <move_right+0x23c>
		{
	     fall();
    1106:	94 d1       	rcall	.+808    	; 0x1430 <fall>
			next_level();
		}
		*/
	}
	
	if(cur_level == 2)
    1108:	80 91 05 01 	lds	r24, 0x0105
    110c:	82 30       	cpi	r24, 0x02	; 2
    110e:	09 f0       	breq	.+2      	; 0x1112 <move_right+0x246>
    1110:	0e c1       	rjmp	.+540    	; 0x132e <move_right+0x462>
	{
		//does not equal level length)
		if(pos_x != lvl_sizes[1] && level2[pos_y][pos_x+1] != TILE &&  level2[pos_y-1][pos_x+1] != TILE && level2[pos_y+1][pos_x] != 0)//cannot move through tile
    1112:	80 91 07 01 	lds	r24, 0x0107
    1116:	28 2f       	mov	r18, r24
    1118:	33 27       	eor	r19, r19
    111a:	27 fd       	sbrc	r18, 7
    111c:	30 95       	com	r19
    111e:	80 91 ee 05 	lds	r24, 0x05EE
    1122:	88 2f       	mov	r24, r24
    1124:	90 e0       	ldi	r25, 0x00	; 0
    1126:	28 17       	cp	r18, r24
    1128:	39 07       	cpc	r19, r25
    112a:	09 f4       	brne	.+2      	; 0x112e <move_right+0x262>
    112c:	e4 c0       	rjmp	.+456    	; 0x12f6 <move_right+0x42a>
    112e:	80 91 08 01 	lds	r24, 0x0108
    1132:	48 2f       	mov	r20, r24
    1134:	55 27       	eor	r21, r21
    1136:	47 fd       	sbrc	r20, 7
    1138:	50 95       	com	r21
    113a:	80 91 07 01 	lds	r24, 0x0107
    113e:	99 27       	eor	r25, r25
    1140:	87 fd       	sbrc	r24, 7
    1142:	90 95       	com	r25
    1144:	01 96       	adiw	r24, 0x01	; 1
    1146:	64 e1       	ldi	r22, 0x14	; 20
    1148:	64 9f       	mul	r22, r20
    114a:	90 01       	movw	r18, r0
    114c:	65 9f       	mul	r22, r21
    114e:	30 0d       	add	r19, r0
    1150:	11 24       	eor	r1, r1
    1152:	82 0f       	add	r24, r18
    1154:	93 1f       	adc	r25, r19
    1156:	83 5b       	subi	r24, 0xB3	; 179
    1158:	9a 4f       	sbci	r25, 0xFA	; 250
    115a:	fc 01       	movw	r30, r24
    115c:	80 81       	ld	r24, Z
    115e:	86 30       	cpi	r24, 0x06	; 6
    1160:	09 f4       	brne	.+2      	; 0x1164 <move_right+0x298>
    1162:	c9 c0       	rjmp	.+402    	; 0x12f6 <move_right+0x42a>
    1164:	80 91 08 01 	lds	r24, 0x0108
    1168:	99 27       	eor	r25, r25
    116a:	87 fd       	sbrc	r24, 7
    116c:	90 95       	com	r25
    116e:	ac 01       	movw	r20, r24
    1170:	41 50       	subi	r20, 0x01	; 1
    1172:	51 09       	sbc	r21, r1
    1174:	80 91 07 01 	lds	r24, 0x0107
    1178:	99 27       	eor	r25, r25
    117a:	87 fd       	sbrc	r24, 7
    117c:	90 95       	com	r25
    117e:	01 96       	adiw	r24, 0x01	; 1
    1180:	64 e1       	ldi	r22, 0x14	; 20
    1182:	64 9f       	mul	r22, r20
    1184:	90 01       	movw	r18, r0
    1186:	65 9f       	mul	r22, r21
    1188:	30 0d       	add	r19, r0
    118a:	11 24       	eor	r1, r1
    118c:	82 0f       	add	r24, r18
    118e:	93 1f       	adc	r25, r19
    1190:	83 5b       	subi	r24, 0xB3	; 179
    1192:	9a 4f       	sbci	r25, 0xFA	; 250
    1194:	fc 01       	movw	r30, r24
    1196:	80 81       	ld	r24, Z
    1198:	86 30       	cpi	r24, 0x06	; 6
    119a:	09 f4       	brne	.+2      	; 0x119e <move_right+0x2d2>
    119c:	ac c0       	rjmp	.+344    	; 0x12f6 <move_right+0x42a>
    119e:	80 91 08 01 	lds	r24, 0x0108
    11a2:	99 27       	eor	r25, r25
    11a4:	87 fd       	sbrc	r24, 7
    11a6:	90 95       	com	r25
    11a8:	ac 01       	movw	r20, r24
    11aa:	4f 5f       	subi	r20, 0xFF	; 255
    11ac:	5f 4f       	sbci	r21, 0xFF	; 255
    11ae:	80 91 07 01 	lds	r24, 0x0107
    11b2:	99 27       	eor	r25, r25
    11b4:	87 fd       	sbrc	r24, 7
    11b6:	90 95       	com	r25
    11b8:	64 e1       	ldi	r22, 0x14	; 20
    11ba:	64 9f       	mul	r22, r20
    11bc:	90 01       	movw	r18, r0
    11be:	65 9f       	mul	r22, r21
    11c0:	30 0d       	add	r19, r0
    11c2:	11 24       	eor	r1, r1
    11c4:	82 0f       	add	r24, r18
    11c6:	93 1f       	adc	r25, r19
    11c8:	83 5b       	subi	r24, 0xB3	; 179
    11ca:	9a 4f       	sbci	r25, 0xFA	; 250
    11cc:	fc 01       	movw	r30, r24
    11ce:	80 81       	ld	r24, Z
    11d0:	88 23       	and	r24, r24
    11d2:	09 f4       	brne	.+2      	; 0x11d6 <move_right+0x30a>
    11d4:	90 c0       	rjmp	.+288    	; 0x12f6 <move_right+0x42a>
		{
		 if(level2[pos_y][pos_x+1] == GREEN)
    11d6:	80 91 08 01 	lds	r24, 0x0108
    11da:	48 2f       	mov	r20, r24
    11dc:	55 27       	eor	r21, r21
    11de:	47 fd       	sbrc	r20, 7
    11e0:	50 95       	com	r21
    11e2:	80 91 07 01 	lds	r24, 0x0107
    11e6:	99 27       	eor	r25, r25
    11e8:	87 fd       	sbrc	r24, 7
    11ea:	90 95       	com	r25
    11ec:	01 96       	adiw	r24, 0x01	; 1
    11ee:	64 e1       	ldi	r22, 0x14	; 20
    11f0:	64 9f       	mul	r22, r20
    11f2:	90 01       	movw	r18, r0
    11f4:	65 9f       	mul	r22, r21
    11f6:	30 0d       	add	r19, r0
    11f8:	11 24       	eor	r1, r1
    11fa:	82 0f       	add	r24, r18
    11fc:	93 1f       	adc	r25, r19
    11fe:	83 5b       	subi	r24, 0xB3	; 179
    1200:	9a 4f       	sbci	r25, 0xFA	; 250
    1202:	fc 01       	movw	r30, r24
    1204:	80 81       	ld	r24, Z
    1206:	83 30       	cpi	r24, 0x03	; 3
    1208:	29 f4       	brne	.+10     	; 0x1214 <move_right+0x348>
		 {
			 player_HP--;
    120a:	80 91 04 01 	lds	r24, 0x0104
    120e:	81 50       	subi	r24, 0x01	; 1
    1210:	80 93 04 01 	sts	0x0104, r24
		 }
		 if(player_HP == 0)
    1214:	80 91 04 01 	lds	r24, 0x0104
    1218:	88 23       	and	r24, r24
    121a:	11 f4       	brne	.+4      	; 0x1220 <move_right+0x354>
		 {
			 reset();
    121c:	0e 94 2a 15 	call	0x2a54	; 0x2a54 <reset>
		 }
		 has_moved = 1;
    1220:	81 e0       	ldi	r24, 0x01	; 1
    1222:	80 93 2a 06 	sts	0x062A, r24
		 level2[pos_y][pos_x] = 0;
    1226:	80 91 08 01 	lds	r24, 0x0108
    122a:	48 2f       	mov	r20, r24
    122c:	55 27       	eor	r21, r21
    122e:	47 fd       	sbrc	r20, 7
    1230:	50 95       	com	r21
    1232:	80 91 07 01 	lds	r24, 0x0107
    1236:	99 27       	eor	r25, r25
    1238:	87 fd       	sbrc	r24, 7
    123a:	90 95       	com	r25
    123c:	64 e1       	ldi	r22, 0x14	; 20
    123e:	64 9f       	mul	r22, r20
    1240:	90 01       	movw	r18, r0
    1242:	65 9f       	mul	r22, r21
    1244:	30 0d       	add	r19, r0
    1246:	11 24       	eor	r1, r1
    1248:	82 0f       	add	r24, r18
    124a:	93 1f       	adc	r25, r19
    124c:	83 5b       	subi	r24, 0xB3	; 179
    124e:	9a 4f       	sbci	r25, 0xFA	; 250
    1250:	fc 01       	movw	r30, r24
    1252:	10 82       	st	Z, r1
		 level2[pos_y-1][pos_x] = 0;
    1254:	80 91 08 01 	lds	r24, 0x0108
    1258:	99 27       	eor	r25, r25
    125a:	87 fd       	sbrc	r24, 7
    125c:	90 95       	com	r25
    125e:	ac 01       	movw	r20, r24
    1260:	41 50       	subi	r20, 0x01	; 1
    1262:	51 09       	sbc	r21, r1
    1264:	80 91 07 01 	lds	r24, 0x0107
    1268:	99 27       	eor	r25, r25
    126a:	87 fd       	sbrc	r24, 7
    126c:	90 95       	com	r25
    126e:	64 e1       	ldi	r22, 0x14	; 20
    1270:	64 9f       	mul	r22, r20
    1272:	90 01       	movw	r18, r0
    1274:	65 9f       	mul	r22, r21
    1276:	30 0d       	add	r19, r0
    1278:	11 24       	eor	r1, r1
    127a:	82 0f       	add	r24, r18
    127c:	93 1f       	adc	r25, r19
    127e:	83 5b       	subi	r24, 0xB3	; 179
    1280:	9a 4f       	sbci	r25, 0xFA	; 250
    1282:	fc 01       	movw	r30, r24
    1284:	10 82       	st	Z, r1
		 pos_x++;
    1286:	80 91 07 01 	lds	r24, 0x0107
    128a:	8f 5f       	subi	r24, 0xFF	; 255
    128c:	80 93 07 01 	sts	0x0107, r24
		 level2[pos_y][pos_x] = YELLOW;
    1290:	80 91 08 01 	lds	r24, 0x0108
    1294:	48 2f       	mov	r20, r24
    1296:	55 27       	eor	r21, r21
    1298:	47 fd       	sbrc	r20, 7
    129a:	50 95       	com	r21
    129c:	80 91 07 01 	lds	r24, 0x0107
    12a0:	99 27       	eor	r25, r25
    12a2:	87 fd       	sbrc	r24, 7
    12a4:	90 95       	com	r25
    12a6:	64 e1       	ldi	r22, 0x14	; 20
    12a8:	64 9f       	mul	r22, r20
    12aa:	90 01       	movw	r18, r0
    12ac:	65 9f       	mul	r22, r21
    12ae:	30 0d       	add	r19, r0
    12b0:	11 24       	eor	r1, r1
    12b2:	82 0f       	add	r24, r18
    12b4:	93 1f       	adc	r25, r19
    12b6:	83 5b       	subi	r24, 0xB3	; 179
    12b8:	9a 4f       	sbci	r25, 0xFA	; 250
    12ba:	27 e0       	ldi	r18, 0x07	; 7
    12bc:	fc 01       	movw	r30, r24
    12be:	20 83       	st	Z, r18
		 level2[pos_y-1][pos_x] = YELLOW;
    12c0:	80 91 08 01 	lds	r24, 0x0108
    12c4:	99 27       	eor	r25, r25
    12c6:	87 fd       	sbrc	r24, 7
    12c8:	90 95       	com	r25
    12ca:	ac 01       	movw	r20, r24
    12cc:	41 50       	subi	r20, 0x01	; 1
    12ce:	51 09       	sbc	r21, r1
    12d0:	80 91 07 01 	lds	r24, 0x0107
    12d4:	99 27       	eor	r25, r25
    12d6:	87 fd       	sbrc	r24, 7
    12d8:	90 95       	com	r25
    12da:	64 e1       	ldi	r22, 0x14	; 20
    12dc:	64 9f       	mul	r22, r20
    12de:	90 01       	movw	r18, r0
    12e0:	65 9f       	mul	r22, r21
    12e2:	30 0d       	add	r19, r0
    12e4:	11 24       	eor	r1, r1
    12e6:	82 0f       	add	r24, r18
    12e8:	93 1f       	adc	r25, r19
    12ea:	83 5b       	subi	r24, 0xB3	; 179
    12ec:	9a 4f       	sbci	r25, 0xFA	; 250
    12ee:	27 e0       	ldi	r18, 0x07	; 7
    12f0:	fc 01       	movw	r30, r24
    12f2:	20 83       	st	Z, r18
    12f4:	1c c0       	rjmp	.+56     	; 0x132e <move_right+0x462>
		}
		else if(level2[pos_y+1][pos_x] == 0)
    12f6:	80 91 08 01 	lds	r24, 0x0108
    12fa:	99 27       	eor	r25, r25
    12fc:	87 fd       	sbrc	r24, 7
    12fe:	90 95       	com	r25
    1300:	ac 01       	movw	r20, r24
    1302:	4f 5f       	subi	r20, 0xFF	; 255
    1304:	5f 4f       	sbci	r21, 0xFF	; 255
    1306:	80 91 07 01 	lds	r24, 0x0107
    130a:	99 27       	eor	r25, r25
    130c:	87 fd       	sbrc	r24, 7
    130e:	90 95       	com	r25
    1310:	64 e1       	ldi	r22, 0x14	; 20
    1312:	64 9f       	mul	r22, r20
    1314:	90 01       	movw	r18, r0
    1316:	65 9f       	mul	r22, r21
    1318:	30 0d       	add	r19, r0
    131a:	11 24       	eor	r1, r1
    131c:	82 0f       	add	r24, r18
    131e:	93 1f       	adc	r25, r19
    1320:	83 5b       	subi	r24, 0xB3	; 179
    1322:	9a 4f       	sbci	r25, 0xFA	; 250
    1324:	fc 01       	movw	r30, r24
    1326:	80 81       	ld	r24, Z
    1328:	88 23       	and	r24, r24
    132a:	09 f4       	brne	.+2      	; 0x132e <move_right+0x462>
		{
			fall();
    132c:	81 d0       	rcall	.+258    	; 0x1430 <fall>
		}
	}

}
    132e:	df 91       	pop	r29
    1330:	cf 91       	pop	r28
    1332:	08 95       	ret

00001334 <crouch>:

void crouch()
{
    1334:	cf 93       	push	r28
    1336:	df 93       	push	r29
    1338:	cd b7       	in	r28, 0x3d	; 61
    133a:	de b7       	in	r29, 0x3e	; 62
	//moving_left = 0;
	//moving_right = 0;
	//in_air = 0;
	crouched = 1;
    133c:	81 e0       	ldi	r24, 0x01	; 1
    133e:	80 93 2c 06 	sts	0x062C, r24
	if(in_air)//do nothing if an air
    1342:	80 91 29 06 	lds	r24, 0x0629
    1346:	88 23       	and	r24, r24
    1348:	09 f0       	breq	.+2      	; 0x134c <crouch+0x18>
    134a:	6e c0       	rjmp	.+220    	; 0x1428 <crouch+0xf4>
	{
		return;
	}
	
	has_moved = 1;
    134c:	81 e0       	ldi	r24, 0x01	; 1
    134e:	80 93 2a 06 	sts	0x062A, r24
	
	if(cur_level == 1)
    1352:	80 91 05 01 	lds	r24, 0x0105
    1356:	81 30       	cpi	r24, 0x01	; 1
    1358:	89 f5       	brne	.+98     	; 0x13bc <crouch+0x88>
	{
			level1[pos_y-1][pos_x] = 0;
    135a:	80 91 08 01 	lds	r24, 0x0108
    135e:	99 27       	eor	r25, r25
    1360:	87 fd       	sbrc	r24, 7
    1362:	90 95       	com	r25
    1364:	ac 01       	movw	r20, r24
    1366:	41 50       	subi	r20, 0x01	; 1
    1368:	51 09       	sbc	r21, r1
    136a:	80 91 07 01 	lds	r24, 0x0107
    136e:	99 27       	eor	r25, r25
    1370:	87 fd       	sbrc	r24, 7
    1372:	90 95       	com	r25
    1374:	66 e8       	ldi	r22, 0x86	; 134
    1376:	64 9f       	mul	r22, r20
    1378:	90 01       	movw	r18, r0
    137a:	65 9f       	mul	r22, r21
    137c:	30 0d       	add	r19, r0
    137e:	11 24       	eor	r1, r1
    1380:	82 0f       	add	r24, r18
    1382:	93 1f       	adc	r25, r19
    1384:	83 5e       	subi	r24, 0xE3	; 227
    1386:	9e 4f       	sbci	r25, 0xFE	; 254
    1388:	fc 01       	movw	r30, r24
    138a:	10 82       	st	Z, r1
			level1[pos_y][pos_x] = YELLOW;	
    138c:	80 91 08 01 	lds	r24, 0x0108
    1390:	48 2f       	mov	r20, r24
    1392:	55 27       	eor	r21, r21
    1394:	47 fd       	sbrc	r20, 7
    1396:	50 95       	com	r21
    1398:	80 91 07 01 	lds	r24, 0x0107
    139c:	99 27       	eor	r25, r25
    139e:	87 fd       	sbrc	r24, 7
    13a0:	90 95       	com	r25
    13a2:	66 e8       	ldi	r22, 0x86	; 134
    13a4:	64 9f       	mul	r22, r20
    13a6:	90 01       	movw	r18, r0
    13a8:	65 9f       	mul	r22, r21
    13aa:	30 0d       	add	r19, r0
    13ac:	11 24       	eor	r1, r1
    13ae:	82 0f       	add	r24, r18
    13b0:	93 1f       	adc	r25, r19
    13b2:	83 5e       	subi	r24, 0xE3	; 227
    13b4:	9e 4f       	sbci	r25, 0xFE	; 254
    13b6:	27 e0       	ldi	r18, 0x07	; 7
    13b8:	fc 01       	movw	r30, r24
    13ba:	20 83       	st	Z, r18
	}
	
	if(cur_level == 2)
    13bc:	80 91 05 01 	lds	r24, 0x0105
    13c0:	82 30       	cpi	r24, 0x02	; 2
    13c2:	99 f5       	brne	.+102    	; 0x142a <crouch+0xf6>
	{
			level2[pos_y-1][pos_x] = 0;
    13c4:	80 91 08 01 	lds	r24, 0x0108
    13c8:	99 27       	eor	r25, r25
    13ca:	87 fd       	sbrc	r24, 7
    13cc:	90 95       	com	r25
    13ce:	ac 01       	movw	r20, r24
    13d0:	41 50       	subi	r20, 0x01	; 1
    13d2:	51 09       	sbc	r21, r1
    13d4:	80 91 07 01 	lds	r24, 0x0107
    13d8:	99 27       	eor	r25, r25
    13da:	87 fd       	sbrc	r24, 7
    13dc:	90 95       	com	r25
    13de:	64 e1       	ldi	r22, 0x14	; 20
    13e0:	64 9f       	mul	r22, r20
    13e2:	90 01       	movw	r18, r0
    13e4:	65 9f       	mul	r22, r21
    13e6:	30 0d       	add	r19, r0
    13e8:	11 24       	eor	r1, r1
    13ea:	82 0f       	add	r24, r18
    13ec:	93 1f       	adc	r25, r19
    13ee:	83 5b       	subi	r24, 0xB3	; 179
    13f0:	9a 4f       	sbci	r25, 0xFA	; 250
    13f2:	fc 01       	movw	r30, r24
    13f4:	10 82       	st	Z, r1
			level2[pos_y][pos_x] = YELLOW;
    13f6:	80 91 08 01 	lds	r24, 0x0108
    13fa:	48 2f       	mov	r20, r24
    13fc:	55 27       	eor	r21, r21
    13fe:	47 fd       	sbrc	r20, 7
    1400:	50 95       	com	r21
    1402:	80 91 07 01 	lds	r24, 0x0107
    1406:	99 27       	eor	r25, r25
    1408:	87 fd       	sbrc	r24, 7
    140a:	90 95       	com	r25
    140c:	64 e1       	ldi	r22, 0x14	; 20
    140e:	64 9f       	mul	r22, r20
    1410:	90 01       	movw	r18, r0
    1412:	65 9f       	mul	r22, r21
    1414:	30 0d       	add	r19, r0
    1416:	11 24       	eor	r1, r1
    1418:	82 0f       	add	r24, r18
    141a:	93 1f       	adc	r25, r19
    141c:	83 5b       	subi	r24, 0xB3	; 179
    141e:	9a 4f       	sbci	r25, 0xFA	; 250
    1420:	27 e0       	ldi	r18, 0x07	; 7
    1422:	fc 01       	movw	r30, r24
    1424:	20 83       	st	Z, r18
    1426:	01 c0       	rjmp	.+2      	; 0x142a <crouch+0xf6>
	//moving_right = 0;
	//in_air = 0;
	crouched = 1;
	if(in_air)//do nothing if an air
	{
		return;
    1428:	00 00       	nop
	if(cur_level == 2)
	{
			level2[pos_y-1][pos_x] = 0;
			level2[pos_y][pos_x] = YELLOW;
	}
}
    142a:	df 91       	pop	r29
    142c:	cf 91       	pop	r28
    142e:	08 95       	ret

00001430 <fall>:

void fall()
{
    1430:	cf 93       	push	r28
    1432:	df 93       	push	r29
    1434:	cd b7       	in	r28, 0x3d	; 61
    1436:	de b7       	in	r29, 0x3e	; 62
	//level 1
	if(cur_level == 1)
    1438:	80 91 05 01 	lds	r24, 0x0105
    143c:	81 30       	cpi	r24, 0x01	; 1
    143e:	09 f0       	breq	.+2      	; 0x1442 <fall+0x12>
    1440:	e2 c0       	rjmp	.+452    	; 0x1606 <fall+0x1d6>
	{
		if(level1[pos_y+1][pos_x] != TILE && level1[pos_y+1][pos_x] != EXIT_COLOR)
    1442:	80 91 08 01 	lds	r24, 0x0108
    1446:	99 27       	eor	r25, r25
    1448:	87 fd       	sbrc	r24, 7
    144a:	90 95       	com	r25
    144c:	ac 01       	movw	r20, r24
    144e:	4f 5f       	subi	r20, 0xFF	; 255
    1450:	5f 4f       	sbci	r21, 0xFF	; 255
    1452:	80 91 07 01 	lds	r24, 0x0107
    1456:	99 27       	eor	r25, r25
    1458:	87 fd       	sbrc	r24, 7
    145a:	90 95       	com	r25
    145c:	66 e8       	ldi	r22, 0x86	; 134
    145e:	64 9f       	mul	r22, r20
    1460:	90 01       	movw	r18, r0
    1462:	65 9f       	mul	r22, r21
    1464:	30 0d       	add	r19, r0
    1466:	11 24       	eor	r1, r1
    1468:	82 0f       	add	r24, r18
    146a:	93 1f       	adc	r25, r19
    146c:	83 5e       	subi	r24, 0xE3	; 227
    146e:	9e 4f       	sbci	r25, 0xFE	; 254
    1470:	fc 01       	movw	r30, r24
    1472:	80 81       	ld	r24, Z
    1474:	86 30       	cpi	r24, 0x06	; 6
    1476:	09 f4       	brne	.+2      	; 0x147a <fall+0x4a>
    1478:	6f c0       	rjmp	.+222    	; 0x1558 <fall+0x128>
    147a:	80 91 08 01 	lds	r24, 0x0108
    147e:	99 27       	eor	r25, r25
    1480:	87 fd       	sbrc	r24, 7
    1482:	90 95       	com	r25
    1484:	ac 01       	movw	r20, r24
    1486:	4f 5f       	subi	r20, 0xFF	; 255
    1488:	5f 4f       	sbci	r21, 0xFF	; 255
    148a:	80 91 07 01 	lds	r24, 0x0107
    148e:	99 27       	eor	r25, r25
    1490:	87 fd       	sbrc	r24, 7
    1492:	90 95       	com	r25
    1494:	66 e8       	ldi	r22, 0x86	; 134
    1496:	64 9f       	mul	r22, r20
    1498:	90 01       	movw	r18, r0
    149a:	65 9f       	mul	r22, r21
    149c:	30 0d       	add	r19, r0
    149e:	11 24       	eor	r1, r1
    14a0:	82 0f       	add	r24, r18
    14a2:	93 1f       	adc	r25, r19
    14a4:	83 5e       	subi	r24, 0xE3	; 227
    14a6:	9e 4f       	sbci	r25, 0xFE	; 254
    14a8:	fc 01       	movw	r30, r24
    14aa:	80 81       	ld	r24, Z
    14ac:	85 30       	cpi	r24, 0x05	; 5
    14ae:	09 f4       	brne	.+2      	; 0x14b2 <fall+0x82>
    14b0:	53 c0       	rjmp	.+166    	; 0x1558 <fall+0x128>
		{
			has_moved = 1;
    14b2:	81 e0       	ldi	r24, 0x01	; 1
    14b4:	80 93 2a 06 	sts	0x062A, r24
			level1[pos_y-1][pos_x] = 0;
    14b8:	80 91 08 01 	lds	r24, 0x0108
    14bc:	99 27       	eor	r25, r25
    14be:	87 fd       	sbrc	r24, 7
    14c0:	90 95       	com	r25
    14c2:	ac 01       	movw	r20, r24
    14c4:	41 50       	subi	r20, 0x01	; 1
    14c6:	51 09       	sbc	r21, r1
    14c8:	80 91 07 01 	lds	r24, 0x0107
    14cc:	99 27       	eor	r25, r25
    14ce:	87 fd       	sbrc	r24, 7
    14d0:	90 95       	com	r25
    14d2:	66 e8       	ldi	r22, 0x86	; 134
    14d4:	64 9f       	mul	r22, r20
    14d6:	90 01       	movw	r18, r0
    14d8:	65 9f       	mul	r22, r21
    14da:	30 0d       	add	r19, r0
    14dc:	11 24       	eor	r1, r1
    14de:	82 0f       	add	r24, r18
    14e0:	93 1f       	adc	r25, r19
    14e2:	83 5e       	subi	r24, 0xE3	; 227
    14e4:	9e 4f       	sbci	r25, 0xFE	; 254
    14e6:	fc 01       	movw	r30, r24
    14e8:	10 82       	st	Z, r1
			level1[pos_y][pos_x] = 0;
    14ea:	80 91 08 01 	lds	r24, 0x0108
    14ee:	48 2f       	mov	r20, r24
    14f0:	55 27       	eor	r21, r21
    14f2:	47 fd       	sbrc	r20, 7
    14f4:	50 95       	com	r21
    14f6:	80 91 07 01 	lds	r24, 0x0107
    14fa:	99 27       	eor	r25, r25
    14fc:	87 fd       	sbrc	r24, 7
    14fe:	90 95       	com	r25
    1500:	66 e8       	ldi	r22, 0x86	; 134
    1502:	64 9f       	mul	r22, r20
    1504:	90 01       	movw	r18, r0
    1506:	65 9f       	mul	r22, r21
    1508:	30 0d       	add	r19, r0
    150a:	11 24       	eor	r1, r1
    150c:	82 0f       	add	r24, r18
    150e:	93 1f       	adc	r25, r19
    1510:	83 5e       	subi	r24, 0xE3	; 227
    1512:	9e 4f       	sbci	r25, 0xFE	; 254
    1514:	fc 01       	movw	r30, r24
    1516:	10 82       	st	Z, r1
			pos_y++;
    1518:	80 91 08 01 	lds	r24, 0x0108
    151c:	8f 5f       	subi	r24, 0xFF	; 255
    151e:	80 93 08 01 	sts	0x0108, r24
			level1[pos_y-1][pos_x] = YELLOW ;
    1522:	80 91 08 01 	lds	r24, 0x0108
    1526:	99 27       	eor	r25, r25
    1528:	87 fd       	sbrc	r24, 7
    152a:	90 95       	com	r25
    152c:	ac 01       	movw	r20, r24
    152e:	41 50       	subi	r20, 0x01	; 1
    1530:	51 09       	sbc	r21, r1
    1532:	80 91 07 01 	lds	r24, 0x0107
    1536:	99 27       	eor	r25, r25
    1538:	87 fd       	sbrc	r24, 7
    153a:	90 95       	com	r25
    153c:	66 e8       	ldi	r22, 0x86	; 134
    153e:	64 9f       	mul	r22, r20
    1540:	90 01       	movw	r18, r0
    1542:	65 9f       	mul	r22, r21
    1544:	30 0d       	add	r19, r0
    1546:	11 24       	eor	r1, r1
    1548:	82 0f       	add	r24, r18
    154a:	93 1f       	adc	r25, r19
    154c:	83 5e       	subi	r24, 0xE3	; 227
    154e:	9e 4f       	sbci	r25, 0xFE	; 254
    1550:	27 e0       	ldi	r18, 0x07	; 7
    1552:	fc 01       	movw	r30, r24
    1554:	20 83       	st	Z, r18
    1556:	57 c0       	rjmp	.+174    	; 0x1606 <fall+0x1d6>
		}
		else if(level1[pos_y+1][pos_x] == EXIT_COLOR)
    1558:	80 91 08 01 	lds	r24, 0x0108
    155c:	99 27       	eor	r25, r25
    155e:	87 fd       	sbrc	r24, 7
    1560:	90 95       	com	r25
    1562:	ac 01       	movw	r20, r24
    1564:	4f 5f       	subi	r20, 0xFF	; 255
    1566:	5f 4f       	sbci	r21, 0xFF	; 255
    1568:	80 91 07 01 	lds	r24, 0x0107
    156c:	99 27       	eor	r25, r25
    156e:	87 fd       	sbrc	r24, 7
    1570:	90 95       	com	r25
    1572:	66 e8       	ldi	r22, 0x86	; 134
    1574:	64 9f       	mul	r22, r20
    1576:	90 01       	movw	r18, r0
    1578:	65 9f       	mul	r22, r21
    157a:	30 0d       	add	r19, r0
    157c:	11 24       	eor	r1, r1
    157e:	82 0f       	add	r24, r18
    1580:	93 1f       	adc	r25, r19
    1582:	83 5e       	subi	r24, 0xE3	; 227
    1584:	9e 4f       	sbci	r25, 0xFE	; 254
    1586:	fc 01       	movw	r30, r24
    1588:	80 81       	ld	r24, Z
    158a:	85 30       	cpi	r24, 0x05	; 5
    158c:	19 f4       	brne	.+6      	; 0x1594 <fall+0x164>
		{
			next_level();
    158e:	0e 94 4f 15 	call	0x2a9e	; 0x2a9e <next_level>
    1592:	39 c0       	rjmp	.+114    	; 0x1606 <fall+0x1d6>
		}
		else
		{
			has_moved = 1;
    1594:	81 e0       	ldi	r24, 0x01	; 1
    1596:	80 93 2a 06 	sts	0x062A, r24
			level1[pos_y][pos_x] = YELLOW;
    159a:	80 91 08 01 	lds	r24, 0x0108
    159e:	48 2f       	mov	r20, r24
    15a0:	55 27       	eor	r21, r21
    15a2:	47 fd       	sbrc	r20, 7
    15a4:	50 95       	com	r21
    15a6:	80 91 07 01 	lds	r24, 0x0107
    15aa:	99 27       	eor	r25, r25
    15ac:	87 fd       	sbrc	r24, 7
    15ae:	90 95       	com	r25
    15b0:	66 e8       	ldi	r22, 0x86	; 134
    15b2:	64 9f       	mul	r22, r20
    15b4:	90 01       	movw	r18, r0
    15b6:	65 9f       	mul	r22, r21
    15b8:	30 0d       	add	r19, r0
    15ba:	11 24       	eor	r1, r1
    15bc:	82 0f       	add	r24, r18
    15be:	93 1f       	adc	r25, r19
    15c0:	83 5e       	subi	r24, 0xE3	; 227
    15c2:	9e 4f       	sbci	r25, 0xFE	; 254
    15c4:	27 e0       	ldi	r18, 0x07	; 7
    15c6:	fc 01       	movw	r30, r24
    15c8:	20 83       	st	Z, r18
			level1[pos_y-1][pos_x] = YELLOW;
    15ca:	80 91 08 01 	lds	r24, 0x0108
    15ce:	99 27       	eor	r25, r25
    15d0:	87 fd       	sbrc	r24, 7
    15d2:	90 95       	com	r25
    15d4:	ac 01       	movw	r20, r24
    15d6:	41 50       	subi	r20, 0x01	; 1
    15d8:	51 09       	sbc	r21, r1
    15da:	80 91 07 01 	lds	r24, 0x0107
    15de:	99 27       	eor	r25, r25
    15e0:	87 fd       	sbrc	r24, 7
    15e2:	90 95       	com	r25
    15e4:	66 e8       	ldi	r22, 0x86	; 134
    15e6:	64 9f       	mul	r22, r20
    15e8:	90 01       	movw	r18, r0
    15ea:	65 9f       	mul	r22, r21
    15ec:	30 0d       	add	r19, r0
    15ee:	11 24       	eor	r1, r1
    15f0:	82 0f       	add	r24, r18
    15f2:	93 1f       	adc	r25, r19
    15f4:	83 5e       	subi	r24, 0xE3	; 227
    15f6:	9e 4f       	sbci	r25, 0xFE	; 254
    15f8:	27 e0       	ldi	r18, 0x07	; 7
    15fa:	fc 01       	movw	r30, r24
    15fc:	20 83       	st	Z, r18
			in_air = 0;
    15fe:	10 92 29 06 	sts	0x0629, r1
			crouched = 0;
    1602:	10 92 2c 06 	sts	0x062C, r1
		}
	}
	//level 2
	if(cur_level == 2)
    1606:	80 91 05 01 	lds	r24, 0x0105
    160a:	82 30       	cpi	r24, 0x02	; 2
    160c:	09 f0       	breq	.+2      	; 0x1610 <fall+0x1e0>
    160e:	11 c1       	rjmp	.+546    	; 0x1832 <fall+0x402>
	{
		if(level2[pos_y+1][pos_x] != TILE && level2[pos_y+1][pos_x] != BLUE)
    1610:	80 91 08 01 	lds	r24, 0x0108
    1614:	99 27       	eor	r25, r25
    1616:	87 fd       	sbrc	r24, 7
    1618:	90 95       	com	r25
    161a:	ac 01       	movw	r20, r24
    161c:	4f 5f       	subi	r20, 0xFF	; 255
    161e:	5f 4f       	sbci	r21, 0xFF	; 255
    1620:	80 91 07 01 	lds	r24, 0x0107
    1624:	99 27       	eor	r25, r25
    1626:	87 fd       	sbrc	r24, 7
    1628:	90 95       	com	r25
    162a:	64 e1       	ldi	r22, 0x14	; 20
    162c:	64 9f       	mul	r22, r20
    162e:	90 01       	movw	r18, r0
    1630:	65 9f       	mul	r22, r21
    1632:	30 0d       	add	r19, r0
    1634:	11 24       	eor	r1, r1
    1636:	82 0f       	add	r24, r18
    1638:	93 1f       	adc	r25, r19
    163a:	83 5b       	subi	r24, 0xB3	; 179
    163c:	9a 4f       	sbci	r25, 0xFA	; 250
    163e:	fc 01       	movw	r30, r24
    1640:	80 81       	ld	r24, Z
    1642:	86 30       	cpi	r24, 0x06	; 6
    1644:	09 f4       	brne	.+2      	; 0x1648 <fall+0x218>
    1646:	6f c0       	rjmp	.+222    	; 0x1726 <fall+0x2f6>
    1648:	80 91 08 01 	lds	r24, 0x0108
    164c:	99 27       	eor	r25, r25
    164e:	87 fd       	sbrc	r24, 7
    1650:	90 95       	com	r25
    1652:	ac 01       	movw	r20, r24
    1654:	4f 5f       	subi	r20, 0xFF	; 255
    1656:	5f 4f       	sbci	r21, 0xFF	; 255
    1658:	80 91 07 01 	lds	r24, 0x0107
    165c:	99 27       	eor	r25, r25
    165e:	87 fd       	sbrc	r24, 7
    1660:	90 95       	com	r25
    1662:	64 e1       	ldi	r22, 0x14	; 20
    1664:	64 9f       	mul	r22, r20
    1666:	90 01       	movw	r18, r0
    1668:	65 9f       	mul	r22, r21
    166a:	30 0d       	add	r19, r0
    166c:	11 24       	eor	r1, r1
    166e:	82 0f       	add	r24, r18
    1670:	93 1f       	adc	r25, r19
    1672:	83 5b       	subi	r24, 0xB3	; 179
    1674:	9a 4f       	sbci	r25, 0xFA	; 250
    1676:	fc 01       	movw	r30, r24
    1678:	80 81       	ld	r24, Z
    167a:	82 30       	cpi	r24, 0x02	; 2
    167c:	09 f4       	brne	.+2      	; 0x1680 <fall+0x250>
    167e:	53 c0       	rjmp	.+166    	; 0x1726 <fall+0x2f6>
		{
			has_moved = 1;
    1680:	81 e0       	ldi	r24, 0x01	; 1
    1682:	80 93 2a 06 	sts	0x062A, r24
			level2[pos_y-1][pos_x] = 0;
    1686:	80 91 08 01 	lds	r24, 0x0108
    168a:	99 27       	eor	r25, r25
    168c:	87 fd       	sbrc	r24, 7
    168e:	90 95       	com	r25
    1690:	ac 01       	movw	r20, r24
    1692:	41 50       	subi	r20, 0x01	; 1
    1694:	51 09       	sbc	r21, r1
    1696:	80 91 07 01 	lds	r24, 0x0107
    169a:	99 27       	eor	r25, r25
    169c:	87 fd       	sbrc	r24, 7
    169e:	90 95       	com	r25
    16a0:	64 e1       	ldi	r22, 0x14	; 20
    16a2:	64 9f       	mul	r22, r20
    16a4:	90 01       	movw	r18, r0
    16a6:	65 9f       	mul	r22, r21
    16a8:	30 0d       	add	r19, r0
    16aa:	11 24       	eor	r1, r1
    16ac:	82 0f       	add	r24, r18
    16ae:	93 1f       	adc	r25, r19
    16b0:	83 5b       	subi	r24, 0xB3	; 179
    16b2:	9a 4f       	sbci	r25, 0xFA	; 250
    16b4:	fc 01       	movw	r30, r24
    16b6:	10 82       	st	Z, r1
			level2[pos_y][pos_x] = 0;
    16b8:	80 91 08 01 	lds	r24, 0x0108
    16bc:	48 2f       	mov	r20, r24
    16be:	55 27       	eor	r21, r21
    16c0:	47 fd       	sbrc	r20, 7
    16c2:	50 95       	com	r21
    16c4:	80 91 07 01 	lds	r24, 0x0107
    16c8:	99 27       	eor	r25, r25
    16ca:	87 fd       	sbrc	r24, 7
    16cc:	90 95       	com	r25
    16ce:	64 e1       	ldi	r22, 0x14	; 20
    16d0:	64 9f       	mul	r22, r20
    16d2:	90 01       	movw	r18, r0
    16d4:	65 9f       	mul	r22, r21
    16d6:	30 0d       	add	r19, r0
    16d8:	11 24       	eor	r1, r1
    16da:	82 0f       	add	r24, r18
    16dc:	93 1f       	adc	r25, r19
    16de:	83 5b       	subi	r24, 0xB3	; 179
    16e0:	9a 4f       	sbci	r25, 0xFA	; 250
    16e2:	fc 01       	movw	r30, r24
    16e4:	10 82       	st	Z, r1
			//level1[pos_y+1][pos_x] = YELLOW;
			pos_y++;
    16e6:	80 91 08 01 	lds	r24, 0x0108
    16ea:	8f 5f       	subi	r24, 0xFF	; 255
    16ec:	80 93 08 01 	sts	0x0108, r24
			level2[pos_y-1][pos_x] = YELLOW ;
    16f0:	80 91 08 01 	lds	r24, 0x0108
    16f4:	99 27       	eor	r25, r25
    16f6:	87 fd       	sbrc	r24, 7
    16f8:	90 95       	com	r25
    16fa:	ac 01       	movw	r20, r24
    16fc:	41 50       	subi	r20, 0x01	; 1
    16fe:	51 09       	sbc	r21, r1
    1700:	80 91 07 01 	lds	r24, 0x0107
    1704:	99 27       	eor	r25, r25
    1706:	87 fd       	sbrc	r24, 7
    1708:	90 95       	com	r25
    170a:	64 e1       	ldi	r22, 0x14	; 20
    170c:	64 9f       	mul	r22, r20
    170e:	90 01       	movw	r18, r0
    1710:	65 9f       	mul	r22, r21
    1712:	30 0d       	add	r19, r0
    1714:	11 24       	eor	r1, r1
    1716:	82 0f       	add	r24, r18
    1718:	93 1f       	adc	r25, r19
    171a:	83 5b       	subi	r24, 0xB3	; 179
    171c:	9a 4f       	sbci	r25, 0xFA	; 250
    171e:	27 e0       	ldi	r18, 0x07	; 7
    1720:	fc 01       	movw	r30, r24
    1722:	20 83       	st	Z, r18
    1724:	86 c0       	rjmp	.+268    	; 0x1832 <fall+0x402>
		}
		else if(level2[pos_y+1][pos_x] == BLUE)//restart section (die)
    1726:	80 91 08 01 	lds	r24, 0x0108
    172a:	99 27       	eor	r25, r25
    172c:	87 fd       	sbrc	r24, 7
    172e:	90 95       	com	r25
    1730:	ac 01       	movw	r20, r24
    1732:	4f 5f       	subi	r20, 0xFF	; 255
    1734:	5f 4f       	sbci	r21, 0xFF	; 255
    1736:	80 91 07 01 	lds	r24, 0x0107
    173a:	99 27       	eor	r25, r25
    173c:	87 fd       	sbrc	r24, 7
    173e:	90 95       	com	r25
    1740:	64 e1       	ldi	r22, 0x14	; 20
    1742:	64 9f       	mul	r22, r20
    1744:	90 01       	movw	r18, r0
    1746:	65 9f       	mul	r22, r21
    1748:	30 0d       	add	r19, r0
    174a:	11 24       	eor	r1, r1
    174c:	82 0f       	add	r24, r18
    174e:	93 1f       	adc	r25, r19
    1750:	83 5b       	subi	r24, 0xB3	; 179
    1752:	9a 4f       	sbci	r25, 0xFA	; 250
    1754:	fc 01       	movw	r30, r24
    1756:	80 81       	ld	r24, Z
    1758:	82 30       	cpi	r24, 0x02	; 2
    175a:	91 f5       	brne	.+100    	; 0x17c0 <fall+0x390>
		{
			pos_y = 2;
    175c:	82 e0       	ldi	r24, 0x02	; 2
    175e:	80 93 08 01 	sts	0x0108, r24
			pos_x = 2;
    1762:	82 e0       	ldi	r24, 0x02	; 2
    1764:	80 93 07 01 	sts	0x0107, r24
			player_HP--;
    1768:	80 91 04 01 	lds	r24, 0x0104
    176c:	81 50       	subi	r24, 0x01	; 1
    176e:	80 93 04 01 	sts	0x0104, r24
			if(player_HP == 0)
    1772:	80 91 04 01 	lds	r24, 0x0104
    1776:	88 23       	and	r24, r24
    1778:	09 f0       	breq	.+2      	; 0x177c <fall+0x34c>
    177a:	5b c0       	rjmp	.+182    	; 0x1832 <fall+0x402>
			{
				cur_level = 1;
    177c:	81 e0       	ldi	r24, 0x01	; 1
    177e:	80 93 05 01 	sts	0x0105, r24
				level_size_index = 0;
    1782:	10 92 30 06 	sts	0x0630, r1
				calc_render_range(lvl_sizes[level_size_index]);
    1786:	80 91 30 06 	lds	r24, 0x0630
    178a:	88 2f       	mov	r24, r24
    178c:	90 e0       	ldi	r25, 0x00	; 0
    178e:	83 51       	subi	r24, 0x13	; 19
    1790:	9a 4f       	sbci	r25, 0xFA	; 250
    1792:	fc 01       	movw	r30, r24
    1794:	80 81       	ld	r24, Z
    1796:	0e 94 2d 03 	call	0x65a	; 0x65a <calc_render_range>
				moving_right = 1;
    179a:	81 e0       	ldi	r24, 0x01	; 1
    179c:	80 93 2e 06 	sts	0x062E, r24
				crouched = 0;
    17a0:	10 92 2c 06 	sts	0x062C, r1
				in_air = 0;
    17a4:	10 92 29 06 	sts	0x0629, r1
				whipped = 0;
    17a8:	10 92 34 06 	sts	0x0634, r1
				pos_x = 2;
    17ac:	82 e0       	ldi	r24, 0x02	; 2
    17ae:	80 93 07 01 	sts	0x0107, r24
				pos_y = 6;
    17b2:	86 e0       	ldi	r24, 0x06	; 6
    17b4:	80 93 08 01 	sts	0x0108, r24
				player_HP = 4;
    17b8:	84 e0       	ldi	r24, 0x04	; 4
    17ba:	80 93 04 01 	sts	0x0104, r24
    17be:	39 c0       	rjmp	.+114    	; 0x1832 <fall+0x402>
			}
		}
		else
		{
			has_moved = 1;
    17c0:	81 e0       	ldi	r24, 0x01	; 1
    17c2:	80 93 2a 06 	sts	0x062A, r24
			level2[pos_y][pos_x] = YELLOW;
    17c6:	80 91 08 01 	lds	r24, 0x0108
    17ca:	48 2f       	mov	r20, r24
    17cc:	55 27       	eor	r21, r21
    17ce:	47 fd       	sbrc	r20, 7
    17d0:	50 95       	com	r21
    17d2:	80 91 07 01 	lds	r24, 0x0107
    17d6:	99 27       	eor	r25, r25
    17d8:	87 fd       	sbrc	r24, 7
    17da:	90 95       	com	r25
    17dc:	64 e1       	ldi	r22, 0x14	; 20
    17de:	64 9f       	mul	r22, r20
    17e0:	90 01       	movw	r18, r0
    17e2:	65 9f       	mul	r22, r21
    17e4:	30 0d       	add	r19, r0
    17e6:	11 24       	eor	r1, r1
    17e8:	82 0f       	add	r24, r18
    17ea:	93 1f       	adc	r25, r19
    17ec:	83 5b       	subi	r24, 0xB3	; 179
    17ee:	9a 4f       	sbci	r25, 0xFA	; 250
    17f0:	27 e0       	ldi	r18, 0x07	; 7
    17f2:	fc 01       	movw	r30, r24
    17f4:	20 83       	st	Z, r18
			level2[pos_y-1][pos_x] = YELLOW;
    17f6:	80 91 08 01 	lds	r24, 0x0108
    17fa:	99 27       	eor	r25, r25
    17fc:	87 fd       	sbrc	r24, 7
    17fe:	90 95       	com	r25
    1800:	ac 01       	movw	r20, r24
    1802:	41 50       	subi	r20, 0x01	; 1
    1804:	51 09       	sbc	r21, r1
    1806:	80 91 07 01 	lds	r24, 0x0107
    180a:	99 27       	eor	r25, r25
    180c:	87 fd       	sbrc	r24, 7
    180e:	90 95       	com	r25
    1810:	64 e1       	ldi	r22, 0x14	; 20
    1812:	64 9f       	mul	r22, r20
    1814:	90 01       	movw	r18, r0
    1816:	65 9f       	mul	r22, r21
    1818:	30 0d       	add	r19, r0
    181a:	11 24       	eor	r1, r1
    181c:	82 0f       	add	r24, r18
    181e:	93 1f       	adc	r25, r19
    1820:	83 5b       	subi	r24, 0xB3	; 179
    1822:	9a 4f       	sbci	r25, 0xFA	; 250
    1824:	27 e0       	ldi	r18, 0x07	; 7
    1826:	fc 01       	movw	r30, r24
    1828:	20 83       	st	Z, r18
			in_air = 0;
    182a:	10 92 29 06 	sts	0x0629, r1
			crouched = 0;
    182e:	10 92 2c 06 	sts	0x062C, r1
		}
	}

}
    1832:	df 91       	pop	r29
    1834:	cf 91       	pop	r28
    1836:	08 95       	ret

00001838 <jump>:
//potential bugs
//jumping out of bounds
//jumping through objects
void jump()
{
    1838:	cf 93       	push	r28
    183a:	df 93       	push	r29
    183c:	cd b7       	in	r28, 0x3d	; 61
    183e:	de b7       	in	r29, 0x3e	; 62
		has_moved = 1;
    1840:	81 e0       	ldi	r24, 0x01	; 1
    1842:	80 93 2a 06 	sts	0x062A, r24
		in_air = 1;
    1846:	81 e0       	ldi	r24, 0x01	; 1
    1848:	80 93 29 06 	sts	0x0629, r24
		crouched = 1;
    184c:	81 e0       	ldi	r24, 0x01	; 1
    184e:	80 93 2c 06 	sts	0x062C, r24
		///LEVEL 1
		if(cur_level == 1)
    1852:	80 91 05 01 	lds	r24, 0x0105
    1856:	81 30       	cpi	r24, 0x01	; 1
    1858:	09 f0       	breq	.+2      	; 0x185c <jump+0x24>
    185a:	e1 c0       	rjmp	.+450    	; 0x1a1e <jump+0x1e6>
		{
			if(pos_y >= 4 && level1[pos_y-2][pos_x] == 0)
    185c:	80 91 08 01 	lds	r24, 0x0108
    1860:	84 30       	cpi	r24, 0x04	; 4
    1862:	0c f4       	brge	.+2      	; 0x1866 <jump+0x2e>
    1864:	6c c0       	rjmp	.+216    	; 0x193e <jump+0x106>
    1866:	80 91 08 01 	lds	r24, 0x0108
    186a:	99 27       	eor	r25, r25
    186c:	87 fd       	sbrc	r24, 7
    186e:	90 95       	com	r25
    1870:	ac 01       	movw	r20, r24
    1872:	42 50       	subi	r20, 0x02	; 2
    1874:	51 09       	sbc	r21, r1
    1876:	80 91 07 01 	lds	r24, 0x0107
    187a:	99 27       	eor	r25, r25
    187c:	87 fd       	sbrc	r24, 7
    187e:	90 95       	com	r25
    1880:	66 e8       	ldi	r22, 0x86	; 134
    1882:	64 9f       	mul	r22, r20
    1884:	90 01       	movw	r18, r0
    1886:	65 9f       	mul	r22, r21
    1888:	30 0d       	add	r19, r0
    188a:	11 24       	eor	r1, r1
    188c:	82 0f       	add	r24, r18
    188e:	93 1f       	adc	r25, r19
    1890:	83 5e       	subi	r24, 0xE3	; 227
    1892:	9e 4f       	sbci	r25, 0xFE	; 254
    1894:	fc 01       	movw	r30, r24
    1896:	80 81       	ld	r24, Z
    1898:	88 23       	and	r24, r24
    189a:	09 f0       	breq	.+2      	; 0x189e <jump+0x66>
    189c:	50 c0       	rjmp	.+160    	; 0x193e <jump+0x106>
			{
				level1[pos_y][pos_x] = 0;
    189e:	80 91 08 01 	lds	r24, 0x0108
    18a2:	48 2f       	mov	r20, r24
    18a4:	55 27       	eor	r21, r21
    18a6:	47 fd       	sbrc	r20, 7
    18a8:	50 95       	com	r21
    18aa:	80 91 07 01 	lds	r24, 0x0107
    18ae:	99 27       	eor	r25, r25
    18b0:	87 fd       	sbrc	r24, 7
    18b2:	90 95       	com	r25
    18b4:	66 e8       	ldi	r22, 0x86	; 134
    18b6:	64 9f       	mul	r22, r20
    18b8:	90 01       	movw	r18, r0
    18ba:	65 9f       	mul	r22, r21
    18bc:	30 0d       	add	r19, r0
    18be:	11 24       	eor	r1, r1
    18c0:	82 0f       	add	r24, r18
    18c2:	93 1f       	adc	r25, r19
    18c4:	83 5e       	subi	r24, 0xE3	; 227
    18c6:	9e 4f       	sbci	r25, 0xFE	; 254
    18c8:	fc 01       	movw	r30, r24
    18ca:	10 82       	st	Z, r1
				level1[pos_y-1][pos_x] = 0;
    18cc:	80 91 08 01 	lds	r24, 0x0108
    18d0:	99 27       	eor	r25, r25
    18d2:	87 fd       	sbrc	r24, 7
    18d4:	90 95       	com	r25
    18d6:	ac 01       	movw	r20, r24
    18d8:	41 50       	subi	r20, 0x01	; 1
    18da:	51 09       	sbc	r21, r1
    18dc:	80 91 07 01 	lds	r24, 0x0107
    18e0:	99 27       	eor	r25, r25
    18e2:	87 fd       	sbrc	r24, 7
    18e4:	90 95       	com	r25
    18e6:	66 e8       	ldi	r22, 0x86	; 134
    18e8:	64 9f       	mul	r22, r20
    18ea:	90 01       	movw	r18, r0
    18ec:	65 9f       	mul	r22, r21
    18ee:	30 0d       	add	r19, r0
    18f0:	11 24       	eor	r1, r1
    18f2:	82 0f       	add	r24, r18
    18f4:	93 1f       	adc	r25, r19
    18f6:	83 5e       	subi	r24, 0xE3	; 227
    18f8:	9e 4f       	sbci	r25, 0xFE	; 254
    18fa:	fc 01       	movw	r30, r24
    18fc:	10 82       	st	Z, r1
				level1[pos_y-3][pos_x] = YELLOW;
    18fe:	80 91 08 01 	lds	r24, 0x0108
    1902:	99 27       	eor	r25, r25
    1904:	87 fd       	sbrc	r24, 7
    1906:	90 95       	com	r25
    1908:	ac 01       	movw	r20, r24
    190a:	43 50       	subi	r20, 0x03	; 3
    190c:	51 09       	sbc	r21, r1
    190e:	80 91 07 01 	lds	r24, 0x0107
    1912:	99 27       	eor	r25, r25
    1914:	87 fd       	sbrc	r24, 7
    1916:	90 95       	com	r25
    1918:	66 e8       	ldi	r22, 0x86	; 134
    191a:	64 9f       	mul	r22, r20
    191c:	90 01       	movw	r18, r0
    191e:	65 9f       	mul	r22, r21
    1920:	30 0d       	add	r19, r0
    1922:	11 24       	eor	r1, r1
    1924:	82 0f       	add	r24, r18
    1926:	93 1f       	adc	r25, r19
    1928:	83 5e       	subi	r24, 0xE3	; 227
    192a:	9e 4f       	sbci	r25, 0xFE	; 254
    192c:	27 e0       	ldi	r18, 0x07	; 7
    192e:	fc 01       	movw	r30, r24
    1930:	20 83       	st	Z, r18
				pos_y = pos_y-3;
    1932:	80 91 08 01 	lds	r24, 0x0108
    1936:	83 50       	subi	r24, 0x03	; 3
    1938:	80 93 08 01 	sts	0x0108, r24
    193c:	70 c0       	rjmp	.+224    	; 0x1a1e <jump+0x1e6>
			}
			else if (pos_y == 3 && level1[pos_y-2][pos_x] == 0) //only jump up 2 otherwise will end up out of range
    193e:	80 91 08 01 	lds	r24, 0x0108
    1942:	83 30       	cpi	r24, 0x03	; 3
    1944:	09 f0       	breq	.+2      	; 0x1948 <jump+0x110>
    1946:	6b c0       	rjmp	.+214    	; 0x1a1e <jump+0x1e6>
    1948:	80 91 08 01 	lds	r24, 0x0108
    194c:	99 27       	eor	r25, r25
    194e:	87 fd       	sbrc	r24, 7
    1950:	90 95       	com	r25
    1952:	ac 01       	movw	r20, r24
    1954:	42 50       	subi	r20, 0x02	; 2
    1956:	51 09       	sbc	r21, r1
    1958:	80 91 07 01 	lds	r24, 0x0107
    195c:	99 27       	eor	r25, r25
    195e:	87 fd       	sbrc	r24, 7
    1960:	90 95       	com	r25
    1962:	66 e8       	ldi	r22, 0x86	; 134
    1964:	64 9f       	mul	r22, r20
    1966:	90 01       	movw	r18, r0
    1968:	65 9f       	mul	r22, r21
    196a:	30 0d       	add	r19, r0
    196c:	11 24       	eor	r1, r1
    196e:	82 0f       	add	r24, r18
    1970:	93 1f       	adc	r25, r19
    1972:	83 5e       	subi	r24, 0xE3	; 227
    1974:	9e 4f       	sbci	r25, 0xFE	; 254
    1976:	fc 01       	movw	r30, r24
    1978:	80 81       	ld	r24, Z
    197a:	88 23       	and	r24, r24
    197c:	09 f0       	breq	.+2      	; 0x1980 <jump+0x148>
    197e:	4f c0       	rjmp	.+158    	; 0x1a1e <jump+0x1e6>
			{
				level1[pos_y][pos_x] = 0;
    1980:	80 91 08 01 	lds	r24, 0x0108
    1984:	48 2f       	mov	r20, r24
    1986:	55 27       	eor	r21, r21
    1988:	47 fd       	sbrc	r20, 7
    198a:	50 95       	com	r21
    198c:	80 91 07 01 	lds	r24, 0x0107
    1990:	99 27       	eor	r25, r25
    1992:	87 fd       	sbrc	r24, 7
    1994:	90 95       	com	r25
    1996:	66 e8       	ldi	r22, 0x86	; 134
    1998:	64 9f       	mul	r22, r20
    199a:	90 01       	movw	r18, r0
    199c:	65 9f       	mul	r22, r21
    199e:	30 0d       	add	r19, r0
    19a0:	11 24       	eor	r1, r1
    19a2:	82 0f       	add	r24, r18
    19a4:	93 1f       	adc	r25, r19
    19a6:	83 5e       	subi	r24, 0xE3	; 227
    19a8:	9e 4f       	sbci	r25, 0xFE	; 254
    19aa:	fc 01       	movw	r30, r24
    19ac:	10 82       	st	Z, r1
				level1[pos_y-1][pos_x] = 0;
    19ae:	80 91 08 01 	lds	r24, 0x0108
    19b2:	99 27       	eor	r25, r25
    19b4:	87 fd       	sbrc	r24, 7
    19b6:	90 95       	com	r25
    19b8:	ac 01       	movw	r20, r24
    19ba:	41 50       	subi	r20, 0x01	; 1
    19bc:	51 09       	sbc	r21, r1
    19be:	80 91 07 01 	lds	r24, 0x0107
    19c2:	99 27       	eor	r25, r25
    19c4:	87 fd       	sbrc	r24, 7
    19c6:	90 95       	com	r25
    19c8:	66 e8       	ldi	r22, 0x86	; 134
    19ca:	64 9f       	mul	r22, r20
    19cc:	90 01       	movw	r18, r0
    19ce:	65 9f       	mul	r22, r21
    19d0:	30 0d       	add	r19, r0
    19d2:	11 24       	eor	r1, r1
    19d4:	82 0f       	add	r24, r18
    19d6:	93 1f       	adc	r25, r19
    19d8:	83 5e       	subi	r24, 0xE3	; 227
    19da:	9e 4f       	sbci	r25, 0xFE	; 254
    19dc:	fc 01       	movw	r30, r24
    19de:	10 82       	st	Z, r1
				level1[pos_y-3][pos_x] = YELLOW;
    19e0:	80 91 08 01 	lds	r24, 0x0108
    19e4:	99 27       	eor	r25, r25
    19e6:	87 fd       	sbrc	r24, 7
    19e8:	90 95       	com	r25
    19ea:	ac 01       	movw	r20, r24
    19ec:	43 50       	subi	r20, 0x03	; 3
    19ee:	51 09       	sbc	r21, r1
    19f0:	80 91 07 01 	lds	r24, 0x0107
    19f4:	99 27       	eor	r25, r25
    19f6:	87 fd       	sbrc	r24, 7
    19f8:	90 95       	com	r25
    19fa:	66 e8       	ldi	r22, 0x86	; 134
    19fc:	64 9f       	mul	r22, r20
    19fe:	90 01       	movw	r18, r0
    1a00:	65 9f       	mul	r22, r21
    1a02:	30 0d       	add	r19, r0
    1a04:	11 24       	eor	r1, r1
    1a06:	82 0f       	add	r24, r18
    1a08:	93 1f       	adc	r25, r19
    1a0a:	83 5e       	subi	r24, 0xE3	; 227
    1a0c:	9e 4f       	sbci	r25, 0xFE	; 254
    1a0e:	27 e0       	ldi	r18, 0x07	; 7
    1a10:	fc 01       	movw	r30, r24
    1a12:	20 83       	st	Z, r18
				pos_y -= 3;
    1a14:	80 91 08 01 	lds	r24, 0x0108
    1a18:	83 50       	subi	r24, 0x03	; 3
    1a1a:	80 93 08 01 	sts	0x0108, r24
			}
		}
		//LEVEL 2
		if(cur_level == 2)
    1a1e:	80 91 05 01 	lds	r24, 0x0105
    1a22:	82 30       	cpi	r24, 0x02	; 2
    1a24:	09 f0       	breq	.+2      	; 0x1a28 <jump+0x1f0>
    1a26:	1d c1       	rjmp	.+570    	; 0x1c62 <jump+0x42a>
		{
			if(pos_y >= 4 && level2[pos_y-2][pos_x] == 0)
    1a28:	80 91 08 01 	lds	r24, 0x0108
    1a2c:	84 30       	cpi	r24, 0x04	; 4
    1a2e:	0c f4       	brge	.+2      	; 0x1a32 <jump+0x1fa>
    1a30:	6c c0       	rjmp	.+216    	; 0x1b0a <jump+0x2d2>
    1a32:	80 91 08 01 	lds	r24, 0x0108
    1a36:	99 27       	eor	r25, r25
    1a38:	87 fd       	sbrc	r24, 7
    1a3a:	90 95       	com	r25
    1a3c:	ac 01       	movw	r20, r24
    1a3e:	42 50       	subi	r20, 0x02	; 2
    1a40:	51 09       	sbc	r21, r1
    1a42:	80 91 07 01 	lds	r24, 0x0107
    1a46:	99 27       	eor	r25, r25
    1a48:	87 fd       	sbrc	r24, 7
    1a4a:	90 95       	com	r25
    1a4c:	64 e1       	ldi	r22, 0x14	; 20
    1a4e:	64 9f       	mul	r22, r20
    1a50:	90 01       	movw	r18, r0
    1a52:	65 9f       	mul	r22, r21
    1a54:	30 0d       	add	r19, r0
    1a56:	11 24       	eor	r1, r1
    1a58:	82 0f       	add	r24, r18
    1a5a:	93 1f       	adc	r25, r19
    1a5c:	83 5b       	subi	r24, 0xB3	; 179
    1a5e:	9a 4f       	sbci	r25, 0xFA	; 250
    1a60:	fc 01       	movw	r30, r24
    1a62:	80 81       	ld	r24, Z
    1a64:	88 23       	and	r24, r24
    1a66:	09 f0       	breq	.+2      	; 0x1a6a <jump+0x232>
    1a68:	50 c0       	rjmp	.+160    	; 0x1b0a <jump+0x2d2>
			{
				level2[pos_y][pos_x] = 0;
    1a6a:	80 91 08 01 	lds	r24, 0x0108
    1a6e:	48 2f       	mov	r20, r24
    1a70:	55 27       	eor	r21, r21
    1a72:	47 fd       	sbrc	r20, 7
    1a74:	50 95       	com	r21
    1a76:	80 91 07 01 	lds	r24, 0x0107
    1a7a:	99 27       	eor	r25, r25
    1a7c:	87 fd       	sbrc	r24, 7
    1a7e:	90 95       	com	r25
    1a80:	64 e1       	ldi	r22, 0x14	; 20
    1a82:	64 9f       	mul	r22, r20
    1a84:	90 01       	movw	r18, r0
    1a86:	65 9f       	mul	r22, r21
    1a88:	30 0d       	add	r19, r0
    1a8a:	11 24       	eor	r1, r1
    1a8c:	82 0f       	add	r24, r18
    1a8e:	93 1f       	adc	r25, r19
    1a90:	83 5b       	subi	r24, 0xB3	; 179
    1a92:	9a 4f       	sbci	r25, 0xFA	; 250
    1a94:	fc 01       	movw	r30, r24
    1a96:	10 82       	st	Z, r1
				level2[pos_y-1][pos_x] = 0;
    1a98:	80 91 08 01 	lds	r24, 0x0108
    1a9c:	99 27       	eor	r25, r25
    1a9e:	87 fd       	sbrc	r24, 7
    1aa0:	90 95       	com	r25
    1aa2:	ac 01       	movw	r20, r24
    1aa4:	41 50       	subi	r20, 0x01	; 1
    1aa6:	51 09       	sbc	r21, r1
    1aa8:	80 91 07 01 	lds	r24, 0x0107
    1aac:	99 27       	eor	r25, r25
    1aae:	87 fd       	sbrc	r24, 7
    1ab0:	90 95       	com	r25
    1ab2:	64 e1       	ldi	r22, 0x14	; 20
    1ab4:	64 9f       	mul	r22, r20
    1ab6:	90 01       	movw	r18, r0
    1ab8:	65 9f       	mul	r22, r21
    1aba:	30 0d       	add	r19, r0
    1abc:	11 24       	eor	r1, r1
    1abe:	82 0f       	add	r24, r18
    1ac0:	93 1f       	adc	r25, r19
    1ac2:	83 5b       	subi	r24, 0xB3	; 179
    1ac4:	9a 4f       	sbci	r25, 0xFA	; 250
    1ac6:	fc 01       	movw	r30, r24
    1ac8:	10 82       	st	Z, r1
				level2[pos_y-3][pos_x] = YELLOW;
    1aca:	80 91 08 01 	lds	r24, 0x0108
    1ace:	99 27       	eor	r25, r25
    1ad0:	87 fd       	sbrc	r24, 7
    1ad2:	90 95       	com	r25
    1ad4:	ac 01       	movw	r20, r24
    1ad6:	43 50       	subi	r20, 0x03	; 3
    1ad8:	51 09       	sbc	r21, r1
    1ada:	80 91 07 01 	lds	r24, 0x0107
    1ade:	99 27       	eor	r25, r25
    1ae0:	87 fd       	sbrc	r24, 7
    1ae2:	90 95       	com	r25
    1ae4:	64 e1       	ldi	r22, 0x14	; 20
    1ae6:	64 9f       	mul	r22, r20
    1ae8:	90 01       	movw	r18, r0
    1aea:	65 9f       	mul	r22, r21
    1aec:	30 0d       	add	r19, r0
    1aee:	11 24       	eor	r1, r1
    1af0:	82 0f       	add	r24, r18
    1af2:	93 1f       	adc	r25, r19
    1af4:	83 5b       	subi	r24, 0xB3	; 179
    1af6:	9a 4f       	sbci	r25, 0xFA	; 250
    1af8:	27 e0       	ldi	r18, 0x07	; 7
    1afa:	fc 01       	movw	r30, r24
    1afc:	20 83       	st	Z, r18
				pos_y = pos_y-3;
    1afe:	80 91 08 01 	lds	r24, 0x0108
    1b02:	83 50       	subi	r24, 0x03	; 3
    1b04:	80 93 08 01 	sts	0x0108, r24
    1b08:	ac c0       	rjmp	.+344    	; 0x1c62 <jump+0x42a>
			}
			else if (pos_y == 3 && (level2[pos_y-2][pos_x] == EXIT_COLOR || level2[pos_y-3][pos_x] == EXIT_COLOR)) //only jump up 2 otherwise will end up out of range
    1b0a:	80 91 08 01 	lds	r24, 0x0108
    1b0e:	83 30       	cpi	r24, 0x03	; 3
    1b10:	c1 f5       	brne	.+112    	; 0x1b82 <jump+0x34a>
    1b12:	80 91 08 01 	lds	r24, 0x0108
    1b16:	99 27       	eor	r25, r25
    1b18:	87 fd       	sbrc	r24, 7
    1b1a:	90 95       	com	r25
    1b1c:	ac 01       	movw	r20, r24
    1b1e:	42 50       	subi	r20, 0x02	; 2
    1b20:	51 09       	sbc	r21, r1
    1b22:	80 91 07 01 	lds	r24, 0x0107
    1b26:	99 27       	eor	r25, r25
    1b28:	87 fd       	sbrc	r24, 7
    1b2a:	90 95       	com	r25
    1b2c:	64 e1       	ldi	r22, 0x14	; 20
    1b2e:	64 9f       	mul	r22, r20
    1b30:	90 01       	movw	r18, r0
    1b32:	65 9f       	mul	r22, r21
    1b34:	30 0d       	add	r19, r0
    1b36:	11 24       	eor	r1, r1
    1b38:	82 0f       	add	r24, r18
    1b3a:	93 1f       	adc	r25, r19
    1b3c:	83 5b       	subi	r24, 0xB3	; 179
    1b3e:	9a 4f       	sbci	r25, 0xFA	; 250
    1b40:	fc 01       	movw	r30, r24
    1b42:	80 81       	ld	r24, Z
    1b44:	85 30       	cpi	r24, 0x05	; 5
    1b46:	d9 f0       	breq	.+54     	; 0x1b7e <jump+0x346>
    1b48:	80 91 08 01 	lds	r24, 0x0108
    1b4c:	99 27       	eor	r25, r25
    1b4e:	87 fd       	sbrc	r24, 7
    1b50:	90 95       	com	r25
    1b52:	ac 01       	movw	r20, r24
    1b54:	43 50       	subi	r20, 0x03	; 3
    1b56:	51 09       	sbc	r21, r1
    1b58:	80 91 07 01 	lds	r24, 0x0107
    1b5c:	99 27       	eor	r25, r25
    1b5e:	87 fd       	sbrc	r24, 7
    1b60:	90 95       	com	r25
    1b62:	64 e1       	ldi	r22, 0x14	; 20
    1b64:	64 9f       	mul	r22, r20
    1b66:	90 01       	movw	r18, r0
    1b68:	65 9f       	mul	r22, r21
    1b6a:	30 0d       	add	r19, r0
    1b6c:	11 24       	eor	r1, r1
    1b6e:	82 0f       	add	r24, r18
    1b70:	93 1f       	adc	r25, r19
    1b72:	83 5b       	subi	r24, 0xB3	; 179
    1b74:	9a 4f       	sbci	r25, 0xFA	; 250
    1b76:	fc 01       	movw	r30, r24
    1b78:	80 81       	ld	r24, Z
    1b7a:	85 30       	cpi	r24, 0x05	; 5
    1b7c:	11 f4       	brne	.+4      	; 0x1b82 <jump+0x34a>
			{
					next_level();
    1b7e:	8f d7       	rcall	.+3870   	; 0x2a9e <next_level>
    1b80:	70 c0       	rjmp	.+224    	; 0x1c62 <jump+0x42a>
			}
			else if (pos_y == 3 && level1[pos_y-2][pos_x] == 0) //only jump up 2 otherwise will end up out of range
    1b82:	80 91 08 01 	lds	r24, 0x0108
    1b86:	83 30       	cpi	r24, 0x03	; 3
    1b88:	09 f0       	breq	.+2      	; 0x1b8c <jump+0x354>
    1b8a:	6b c0       	rjmp	.+214    	; 0x1c62 <jump+0x42a>
    1b8c:	80 91 08 01 	lds	r24, 0x0108
    1b90:	99 27       	eor	r25, r25
    1b92:	87 fd       	sbrc	r24, 7
    1b94:	90 95       	com	r25
    1b96:	ac 01       	movw	r20, r24
    1b98:	42 50       	subi	r20, 0x02	; 2
    1b9a:	51 09       	sbc	r21, r1
    1b9c:	80 91 07 01 	lds	r24, 0x0107
    1ba0:	99 27       	eor	r25, r25
    1ba2:	87 fd       	sbrc	r24, 7
    1ba4:	90 95       	com	r25
    1ba6:	66 e8       	ldi	r22, 0x86	; 134
    1ba8:	64 9f       	mul	r22, r20
    1baa:	90 01       	movw	r18, r0
    1bac:	65 9f       	mul	r22, r21
    1bae:	30 0d       	add	r19, r0
    1bb0:	11 24       	eor	r1, r1
    1bb2:	82 0f       	add	r24, r18
    1bb4:	93 1f       	adc	r25, r19
    1bb6:	83 5e       	subi	r24, 0xE3	; 227
    1bb8:	9e 4f       	sbci	r25, 0xFE	; 254
    1bba:	fc 01       	movw	r30, r24
    1bbc:	80 81       	ld	r24, Z
    1bbe:	88 23       	and	r24, r24
    1bc0:	09 f0       	breq	.+2      	; 0x1bc4 <jump+0x38c>
    1bc2:	4f c0       	rjmp	.+158    	; 0x1c62 <jump+0x42a>
			{
				level2[pos_y][pos_x] = 0;
    1bc4:	80 91 08 01 	lds	r24, 0x0108
    1bc8:	48 2f       	mov	r20, r24
    1bca:	55 27       	eor	r21, r21
    1bcc:	47 fd       	sbrc	r20, 7
    1bce:	50 95       	com	r21
    1bd0:	80 91 07 01 	lds	r24, 0x0107
    1bd4:	99 27       	eor	r25, r25
    1bd6:	87 fd       	sbrc	r24, 7
    1bd8:	90 95       	com	r25
    1bda:	64 e1       	ldi	r22, 0x14	; 20
    1bdc:	64 9f       	mul	r22, r20
    1bde:	90 01       	movw	r18, r0
    1be0:	65 9f       	mul	r22, r21
    1be2:	30 0d       	add	r19, r0
    1be4:	11 24       	eor	r1, r1
    1be6:	82 0f       	add	r24, r18
    1be8:	93 1f       	adc	r25, r19
    1bea:	83 5b       	subi	r24, 0xB3	; 179
    1bec:	9a 4f       	sbci	r25, 0xFA	; 250
    1bee:	fc 01       	movw	r30, r24
    1bf0:	10 82       	st	Z, r1
				level2[pos_y-1][pos_x] = 0;
    1bf2:	80 91 08 01 	lds	r24, 0x0108
    1bf6:	99 27       	eor	r25, r25
    1bf8:	87 fd       	sbrc	r24, 7
    1bfa:	90 95       	com	r25
    1bfc:	ac 01       	movw	r20, r24
    1bfe:	41 50       	subi	r20, 0x01	; 1
    1c00:	51 09       	sbc	r21, r1
    1c02:	80 91 07 01 	lds	r24, 0x0107
    1c06:	99 27       	eor	r25, r25
    1c08:	87 fd       	sbrc	r24, 7
    1c0a:	90 95       	com	r25
    1c0c:	64 e1       	ldi	r22, 0x14	; 20
    1c0e:	64 9f       	mul	r22, r20
    1c10:	90 01       	movw	r18, r0
    1c12:	65 9f       	mul	r22, r21
    1c14:	30 0d       	add	r19, r0
    1c16:	11 24       	eor	r1, r1
    1c18:	82 0f       	add	r24, r18
    1c1a:	93 1f       	adc	r25, r19
    1c1c:	83 5b       	subi	r24, 0xB3	; 179
    1c1e:	9a 4f       	sbci	r25, 0xFA	; 250
    1c20:	fc 01       	movw	r30, r24
    1c22:	10 82       	st	Z, r1
				level2[pos_y-2][pos_x] = YELLOW;
    1c24:	80 91 08 01 	lds	r24, 0x0108
    1c28:	99 27       	eor	r25, r25
    1c2a:	87 fd       	sbrc	r24, 7
    1c2c:	90 95       	com	r25
    1c2e:	ac 01       	movw	r20, r24
    1c30:	42 50       	subi	r20, 0x02	; 2
    1c32:	51 09       	sbc	r21, r1
    1c34:	80 91 07 01 	lds	r24, 0x0107
    1c38:	99 27       	eor	r25, r25
    1c3a:	87 fd       	sbrc	r24, 7
    1c3c:	90 95       	com	r25
    1c3e:	64 e1       	ldi	r22, 0x14	; 20
    1c40:	64 9f       	mul	r22, r20
    1c42:	90 01       	movw	r18, r0
    1c44:	65 9f       	mul	r22, r21
    1c46:	30 0d       	add	r19, r0
    1c48:	11 24       	eor	r1, r1
    1c4a:	82 0f       	add	r24, r18
    1c4c:	93 1f       	adc	r25, r19
    1c4e:	83 5b       	subi	r24, 0xB3	; 179
    1c50:	9a 4f       	sbci	r25, 0xFA	; 250
    1c52:	27 e0       	ldi	r18, 0x07	; 7
    1c54:	fc 01       	movw	r30, r24
    1c56:	20 83       	st	Z, r18
				pos_y -= 2;
    1c58:	80 91 08 01 	lds	r24, 0x0108
    1c5c:	82 50       	subi	r24, 0x02	; 2
    1c5e:	80 93 08 01 	sts	0x0108, r24
			}	
		}

}
    1c62:	df 91       	pop	r29
    1c64:	cf 91       	pop	r28
    1c66:	08 95       	ret

00001c68 <forward_jump>:
void forward_jump()
{
    1c68:	cf 93       	push	r28
    1c6a:	df 93       	push	r29
    1c6c:	cd b7       	in	r28, 0x3d	; 61
    1c6e:	de b7       	in	r29, 0x3e	; 62
//case control_rightB:
		in_air = 1;
    1c70:	81 e0       	ldi	r24, 0x01	; 1
    1c72:	80 93 29 06 	sts	0x0629, r24
		crouched = 1;
    1c76:	81 e0       	ldi	r24, 0x01	; 1
    1c78:	80 93 2c 06 	sts	0x062C, r24
		//call jump first in state then get this one to move you forward
	 if(cur_level == 1)
    1c7c:	80 91 05 01 	lds	r24, 0x0105
    1c80:	81 30       	cpi	r24, 0x01	; 1
    1c82:	09 f0       	breq	.+2      	; 0x1c86 <forward_jump+0x1e>
    1c84:	df c0       	rjmp	.+446    	; 0x1e44 <forward_jump+0x1dc>
	 {
		if(pos_x+1 != lvl_sizes[level_size_index] && moving_right && level1[pos_y][pos_x+1] != TILE && level1[pos_y][pos_x+1] != EXIT_COLOR)
    1c86:	80 91 07 01 	lds	r24, 0x0107
    1c8a:	99 27       	eor	r25, r25
    1c8c:	87 fd       	sbrc	r24, 7
    1c8e:	90 95       	com	r25
    1c90:	9c 01       	movw	r18, r24
    1c92:	2f 5f       	subi	r18, 0xFF	; 255
    1c94:	3f 4f       	sbci	r19, 0xFF	; 255
    1c96:	80 91 30 06 	lds	r24, 0x0630
    1c9a:	88 2f       	mov	r24, r24
    1c9c:	90 e0       	ldi	r25, 0x00	; 0
    1c9e:	83 51       	subi	r24, 0x13	; 19
    1ca0:	9a 4f       	sbci	r25, 0xFA	; 250
    1ca2:	fc 01       	movw	r30, r24
    1ca4:	80 81       	ld	r24, Z
    1ca6:	88 2f       	mov	r24, r24
    1ca8:	90 e0       	ldi	r25, 0x00	; 0
    1caa:	28 17       	cp	r18, r24
    1cac:	39 07       	cpc	r19, r25
    1cae:	09 f4       	brne	.+2      	; 0x1cb2 <forward_jump+0x4a>
    1cb0:	70 c0       	rjmp	.+224    	; 0x1d92 <forward_jump+0x12a>
    1cb2:	80 91 2e 06 	lds	r24, 0x062E
    1cb6:	88 23       	and	r24, r24
    1cb8:	09 f4       	brne	.+2      	; 0x1cbc <forward_jump+0x54>
    1cba:	6b c0       	rjmp	.+214    	; 0x1d92 <forward_jump+0x12a>
    1cbc:	80 91 08 01 	lds	r24, 0x0108
    1cc0:	48 2f       	mov	r20, r24
    1cc2:	55 27       	eor	r21, r21
    1cc4:	47 fd       	sbrc	r20, 7
    1cc6:	50 95       	com	r21
    1cc8:	80 91 07 01 	lds	r24, 0x0107
    1ccc:	99 27       	eor	r25, r25
    1cce:	87 fd       	sbrc	r24, 7
    1cd0:	90 95       	com	r25
    1cd2:	01 96       	adiw	r24, 0x01	; 1
    1cd4:	66 e8       	ldi	r22, 0x86	; 134
    1cd6:	64 9f       	mul	r22, r20
    1cd8:	90 01       	movw	r18, r0
    1cda:	65 9f       	mul	r22, r21
    1cdc:	30 0d       	add	r19, r0
    1cde:	11 24       	eor	r1, r1
    1ce0:	82 0f       	add	r24, r18
    1ce2:	93 1f       	adc	r25, r19
    1ce4:	83 5e       	subi	r24, 0xE3	; 227
    1ce6:	9e 4f       	sbci	r25, 0xFE	; 254
    1ce8:	fc 01       	movw	r30, r24
    1cea:	80 81       	ld	r24, Z
    1cec:	86 30       	cpi	r24, 0x06	; 6
    1cee:	09 f4       	brne	.+2      	; 0x1cf2 <forward_jump+0x8a>
    1cf0:	50 c0       	rjmp	.+160    	; 0x1d92 <forward_jump+0x12a>
    1cf2:	80 91 08 01 	lds	r24, 0x0108
    1cf6:	48 2f       	mov	r20, r24
    1cf8:	55 27       	eor	r21, r21
    1cfa:	47 fd       	sbrc	r20, 7
    1cfc:	50 95       	com	r21
    1cfe:	80 91 07 01 	lds	r24, 0x0107
    1d02:	99 27       	eor	r25, r25
    1d04:	87 fd       	sbrc	r24, 7
    1d06:	90 95       	com	r25
    1d08:	01 96       	adiw	r24, 0x01	; 1
    1d0a:	66 e8       	ldi	r22, 0x86	; 134
    1d0c:	64 9f       	mul	r22, r20
    1d0e:	90 01       	movw	r18, r0
    1d10:	65 9f       	mul	r22, r21
    1d12:	30 0d       	add	r19, r0
    1d14:	11 24       	eor	r1, r1
    1d16:	82 0f       	add	r24, r18
    1d18:	93 1f       	adc	r25, r19
    1d1a:	83 5e       	subi	r24, 0xE3	; 227
    1d1c:	9e 4f       	sbci	r25, 0xFE	; 254
    1d1e:	fc 01       	movw	r30, r24
    1d20:	80 81       	ld	r24, Z
    1d22:	85 30       	cpi	r24, 0x05	; 5
    1d24:	b1 f1       	breq	.+108    	; 0x1d92 <forward_jump+0x12a>
		{
			level1[pos_y][pos_x] = 0;
    1d26:	80 91 08 01 	lds	r24, 0x0108
    1d2a:	48 2f       	mov	r20, r24
    1d2c:	55 27       	eor	r21, r21
    1d2e:	47 fd       	sbrc	r20, 7
    1d30:	50 95       	com	r21
    1d32:	80 91 07 01 	lds	r24, 0x0107
    1d36:	99 27       	eor	r25, r25
    1d38:	87 fd       	sbrc	r24, 7
    1d3a:	90 95       	com	r25
    1d3c:	66 e8       	ldi	r22, 0x86	; 134
    1d3e:	64 9f       	mul	r22, r20
    1d40:	90 01       	movw	r18, r0
    1d42:	65 9f       	mul	r22, r21
    1d44:	30 0d       	add	r19, r0
    1d46:	11 24       	eor	r1, r1
    1d48:	82 0f       	add	r24, r18
    1d4a:	93 1f       	adc	r25, r19
    1d4c:	83 5e       	subi	r24, 0xE3	; 227
    1d4e:	9e 4f       	sbci	r25, 0xFE	; 254
    1d50:	fc 01       	movw	r30, r24
    1d52:	10 82       	st	Z, r1
			//level1[pos_y-1][pos_x] = 0;
			level1[pos_y][pos_x+1] = YELLOW;
    1d54:	80 91 08 01 	lds	r24, 0x0108
    1d58:	48 2f       	mov	r20, r24
    1d5a:	55 27       	eor	r21, r21
    1d5c:	47 fd       	sbrc	r20, 7
    1d5e:	50 95       	com	r21
    1d60:	80 91 07 01 	lds	r24, 0x0107
    1d64:	99 27       	eor	r25, r25
    1d66:	87 fd       	sbrc	r24, 7
    1d68:	90 95       	com	r25
    1d6a:	01 96       	adiw	r24, 0x01	; 1
    1d6c:	66 e8       	ldi	r22, 0x86	; 134
    1d6e:	64 9f       	mul	r22, r20
    1d70:	90 01       	movw	r18, r0
    1d72:	65 9f       	mul	r22, r21
    1d74:	30 0d       	add	r19, r0
    1d76:	11 24       	eor	r1, r1
    1d78:	82 0f       	add	r24, r18
    1d7a:	93 1f       	adc	r25, r19
    1d7c:	83 5e       	subi	r24, 0xE3	; 227
    1d7e:	9e 4f       	sbci	r25, 0xFE	; 254
    1d80:	27 e0       	ldi	r18, 0x07	; 7
    1d82:	fc 01       	movw	r30, r24
    1d84:	20 83       	st	Z, r18
			//	pos_y -= 3;
			pos_x++;
    1d86:	80 91 07 01 	lds	r24, 0x0107
    1d8a:	8f 5f       	subi	r24, 0xFF	; 255
    1d8c:	80 93 07 01 	sts	0x0107, r24
    1d90:	59 c0       	rjmp	.+178    	; 0x1e44 <forward_jump+0x1dc>
		}
		else if(pos_x != 0 && moving_left && level1[pos_y][pos_x-1] != TILE)
    1d92:	80 91 07 01 	lds	r24, 0x0107
    1d96:	88 23       	and	r24, r24
    1d98:	09 f4       	brne	.+2      	; 0x1d9c <forward_jump+0x134>
    1d9a:	54 c0       	rjmp	.+168    	; 0x1e44 <forward_jump+0x1dc>
    1d9c:	80 91 2d 06 	lds	r24, 0x062D
    1da0:	88 23       	and	r24, r24
    1da2:	09 f4       	brne	.+2      	; 0x1da6 <forward_jump+0x13e>
    1da4:	4f c0       	rjmp	.+158    	; 0x1e44 <forward_jump+0x1dc>
    1da6:	80 91 08 01 	lds	r24, 0x0108
    1daa:	48 2f       	mov	r20, r24
    1dac:	55 27       	eor	r21, r21
    1dae:	47 fd       	sbrc	r20, 7
    1db0:	50 95       	com	r21
    1db2:	80 91 07 01 	lds	r24, 0x0107
    1db6:	99 27       	eor	r25, r25
    1db8:	87 fd       	sbrc	r24, 7
    1dba:	90 95       	com	r25
    1dbc:	01 97       	sbiw	r24, 0x01	; 1
    1dbe:	66 e8       	ldi	r22, 0x86	; 134
    1dc0:	64 9f       	mul	r22, r20
    1dc2:	90 01       	movw	r18, r0
    1dc4:	65 9f       	mul	r22, r21
    1dc6:	30 0d       	add	r19, r0
    1dc8:	11 24       	eor	r1, r1
    1dca:	82 0f       	add	r24, r18
    1dcc:	93 1f       	adc	r25, r19
    1dce:	83 5e       	subi	r24, 0xE3	; 227
    1dd0:	9e 4f       	sbci	r25, 0xFE	; 254
    1dd2:	fc 01       	movw	r30, r24
    1dd4:	80 81       	ld	r24, Z
    1dd6:	86 30       	cpi	r24, 0x06	; 6
    1dd8:	a9 f1       	breq	.+106    	; 0x1e44 <forward_jump+0x1dc>
		{
		  level1[pos_y][pos_x] = 0;
    1dda:	80 91 08 01 	lds	r24, 0x0108
    1dde:	48 2f       	mov	r20, r24
    1de0:	55 27       	eor	r21, r21
    1de2:	47 fd       	sbrc	r20, 7
    1de4:	50 95       	com	r21
    1de6:	80 91 07 01 	lds	r24, 0x0107
    1dea:	99 27       	eor	r25, r25
    1dec:	87 fd       	sbrc	r24, 7
    1dee:	90 95       	com	r25
    1df0:	66 e8       	ldi	r22, 0x86	; 134
    1df2:	64 9f       	mul	r22, r20
    1df4:	90 01       	movw	r18, r0
    1df6:	65 9f       	mul	r22, r21
    1df8:	30 0d       	add	r19, r0
    1dfa:	11 24       	eor	r1, r1
    1dfc:	82 0f       	add	r24, r18
    1dfe:	93 1f       	adc	r25, r19
    1e00:	83 5e       	subi	r24, 0xE3	; 227
    1e02:	9e 4f       	sbci	r25, 0xFE	; 254
    1e04:	fc 01       	movw	r30, r24
    1e06:	10 82       	st	Z, r1
		  //level1[pos_y-1][pos_x] = 0;
		  level1[pos_y][pos_x-1] = YELLOW;
    1e08:	80 91 08 01 	lds	r24, 0x0108
    1e0c:	48 2f       	mov	r20, r24
    1e0e:	55 27       	eor	r21, r21
    1e10:	47 fd       	sbrc	r20, 7
    1e12:	50 95       	com	r21
    1e14:	80 91 07 01 	lds	r24, 0x0107
    1e18:	99 27       	eor	r25, r25
    1e1a:	87 fd       	sbrc	r24, 7
    1e1c:	90 95       	com	r25
    1e1e:	01 97       	sbiw	r24, 0x01	; 1
    1e20:	66 e8       	ldi	r22, 0x86	; 134
    1e22:	64 9f       	mul	r22, r20
    1e24:	90 01       	movw	r18, r0
    1e26:	65 9f       	mul	r22, r21
    1e28:	30 0d       	add	r19, r0
    1e2a:	11 24       	eor	r1, r1
    1e2c:	82 0f       	add	r24, r18
    1e2e:	93 1f       	adc	r25, r19
    1e30:	83 5e       	subi	r24, 0xE3	; 227
    1e32:	9e 4f       	sbci	r25, 0xFE	; 254
    1e34:	27 e0       	ldi	r18, 0x07	; 7
    1e36:	fc 01       	movw	r30, r24
    1e38:	20 83       	st	Z, r18
		  pos_x--;
    1e3a:	80 91 07 01 	lds	r24, 0x0107
    1e3e:	81 50       	subi	r24, 0x01	; 1
    1e40:	80 93 07 01 	sts	0x0107, r24
		}
	 }
	 //LEVEL 2 ///
	  if(cur_level == 2)
    1e44:	80 91 05 01 	lds	r24, 0x0105
    1e48:	82 30       	cpi	r24, 0x02	; 2
    1e4a:	09 f0       	breq	.+2      	; 0x1e4e <forward_jump+0x1e6>
    1e4c:	df c0       	rjmp	.+446    	; 0x200c <forward_jump+0x3a4>
	  {
		  if(pos_x+1 != lvl_sizes[level_size_index] && moving_right && level2[pos_y][pos_x+1] != TILE && level2[pos_y][pos_x+1] != EXIT_COLOR)
    1e4e:	80 91 07 01 	lds	r24, 0x0107
    1e52:	99 27       	eor	r25, r25
    1e54:	87 fd       	sbrc	r24, 7
    1e56:	90 95       	com	r25
    1e58:	9c 01       	movw	r18, r24
    1e5a:	2f 5f       	subi	r18, 0xFF	; 255
    1e5c:	3f 4f       	sbci	r19, 0xFF	; 255
    1e5e:	80 91 30 06 	lds	r24, 0x0630
    1e62:	88 2f       	mov	r24, r24
    1e64:	90 e0       	ldi	r25, 0x00	; 0
    1e66:	83 51       	subi	r24, 0x13	; 19
    1e68:	9a 4f       	sbci	r25, 0xFA	; 250
    1e6a:	fc 01       	movw	r30, r24
    1e6c:	80 81       	ld	r24, Z
    1e6e:	88 2f       	mov	r24, r24
    1e70:	90 e0       	ldi	r25, 0x00	; 0
    1e72:	28 17       	cp	r18, r24
    1e74:	39 07       	cpc	r19, r25
    1e76:	09 f4       	brne	.+2      	; 0x1e7a <forward_jump+0x212>
    1e78:	70 c0       	rjmp	.+224    	; 0x1f5a <forward_jump+0x2f2>
    1e7a:	80 91 2e 06 	lds	r24, 0x062E
    1e7e:	88 23       	and	r24, r24
    1e80:	09 f4       	brne	.+2      	; 0x1e84 <forward_jump+0x21c>
    1e82:	6b c0       	rjmp	.+214    	; 0x1f5a <forward_jump+0x2f2>
    1e84:	80 91 08 01 	lds	r24, 0x0108
    1e88:	48 2f       	mov	r20, r24
    1e8a:	55 27       	eor	r21, r21
    1e8c:	47 fd       	sbrc	r20, 7
    1e8e:	50 95       	com	r21
    1e90:	80 91 07 01 	lds	r24, 0x0107
    1e94:	99 27       	eor	r25, r25
    1e96:	87 fd       	sbrc	r24, 7
    1e98:	90 95       	com	r25
    1e9a:	01 96       	adiw	r24, 0x01	; 1
    1e9c:	64 e1       	ldi	r22, 0x14	; 20
    1e9e:	64 9f       	mul	r22, r20
    1ea0:	90 01       	movw	r18, r0
    1ea2:	65 9f       	mul	r22, r21
    1ea4:	30 0d       	add	r19, r0
    1ea6:	11 24       	eor	r1, r1
    1ea8:	82 0f       	add	r24, r18
    1eaa:	93 1f       	adc	r25, r19
    1eac:	83 5b       	subi	r24, 0xB3	; 179
    1eae:	9a 4f       	sbci	r25, 0xFA	; 250
    1eb0:	fc 01       	movw	r30, r24
    1eb2:	80 81       	ld	r24, Z
    1eb4:	86 30       	cpi	r24, 0x06	; 6
    1eb6:	09 f4       	brne	.+2      	; 0x1eba <forward_jump+0x252>
    1eb8:	50 c0       	rjmp	.+160    	; 0x1f5a <forward_jump+0x2f2>
    1eba:	80 91 08 01 	lds	r24, 0x0108
    1ebe:	48 2f       	mov	r20, r24
    1ec0:	55 27       	eor	r21, r21
    1ec2:	47 fd       	sbrc	r20, 7
    1ec4:	50 95       	com	r21
    1ec6:	80 91 07 01 	lds	r24, 0x0107
    1eca:	99 27       	eor	r25, r25
    1ecc:	87 fd       	sbrc	r24, 7
    1ece:	90 95       	com	r25
    1ed0:	01 96       	adiw	r24, 0x01	; 1
    1ed2:	64 e1       	ldi	r22, 0x14	; 20
    1ed4:	64 9f       	mul	r22, r20
    1ed6:	90 01       	movw	r18, r0
    1ed8:	65 9f       	mul	r22, r21
    1eda:	30 0d       	add	r19, r0
    1edc:	11 24       	eor	r1, r1
    1ede:	82 0f       	add	r24, r18
    1ee0:	93 1f       	adc	r25, r19
    1ee2:	83 5b       	subi	r24, 0xB3	; 179
    1ee4:	9a 4f       	sbci	r25, 0xFA	; 250
    1ee6:	fc 01       	movw	r30, r24
    1ee8:	80 81       	ld	r24, Z
    1eea:	85 30       	cpi	r24, 0x05	; 5
    1eec:	b1 f1       	breq	.+108    	; 0x1f5a <forward_jump+0x2f2>
		  {
			  level2[pos_y][pos_x] = 0;
    1eee:	80 91 08 01 	lds	r24, 0x0108
    1ef2:	48 2f       	mov	r20, r24
    1ef4:	55 27       	eor	r21, r21
    1ef6:	47 fd       	sbrc	r20, 7
    1ef8:	50 95       	com	r21
    1efa:	80 91 07 01 	lds	r24, 0x0107
    1efe:	99 27       	eor	r25, r25
    1f00:	87 fd       	sbrc	r24, 7
    1f02:	90 95       	com	r25
    1f04:	64 e1       	ldi	r22, 0x14	; 20
    1f06:	64 9f       	mul	r22, r20
    1f08:	90 01       	movw	r18, r0
    1f0a:	65 9f       	mul	r22, r21
    1f0c:	30 0d       	add	r19, r0
    1f0e:	11 24       	eor	r1, r1
    1f10:	82 0f       	add	r24, r18
    1f12:	93 1f       	adc	r25, r19
    1f14:	83 5b       	subi	r24, 0xB3	; 179
    1f16:	9a 4f       	sbci	r25, 0xFA	; 250
    1f18:	fc 01       	movw	r30, r24
    1f1a:	10 82       	st	Z, r1
			  //level2[pos_y-1][pos_x] = 0;
			  level2[pos_y][pos_x+1] = YELLOW;
    1f1c:	80 91 08 01 	lds	r24, 0x0108
    1f20:	48 2f       	mov	r20, r24
    1f22:	55 27       	eor	r21, r21
    1f24:	47 fd       	sbrc	r20, 7
    1f26:	50 95       	com	r21
    1f28:	80 91 07 01 	lds	r24, 0x0107
    1f2c:	99 27       	eor	r25, r25
    1f2e:	87 fd       	sbrc	r24, 7
    1f30:	90 95       	com	r25
    1f32:	01 96       	adiw	r24, 0x01	; 1
    1f34:	64 e1       	ldi	r22, 0x14	; 20
    1f36:	64 9f       	mul	r22, r20
    1f38:	90 01       	movw	r18, r0
    1f3a:	65 9f       	mul	r22, r21
    1f3c:	30 0d       	add	r19, r0
    1f3e:	11 24       	eor	r1, r1
    1f40:	82 0f       	add	r24, r18
    1f42:	93 1f       	adc	r25, r19
    1f44:	83 5b       	subi	r24, 0xB3	; 179
    1f46:	9a 4f       	sbci	r25, 0xFA	; 250
    1f48:	27 e0       	ldi	r18, 0x07	; 7
    1f4a:	fc 01       	movw	r30, r24
    1f4c:	20 83       	st	Z, r18
			  //	pos_y -= 3;
			  pos_x++;
    1f4e:	80 91 07 01 	lds	r24, 0x0107
    1f52:	8f 5f       	subi	r24, 0xFF	; 255
    1f54:	80 93 07 01 	sts	0x0107, r24
    1f58:	59 c0       	rjmp	.+178    	; 0x200c <forward_jump+0x3a4>
		  }
		  else if(pos_x != 0 && moving_left && level2[pos_y][pos_x-1] != TILE)
    1f5a:	80 91 07 01 	lds	r24, 0x0107
    1f5e:	88 23       	and	r24, r24
    1f60:	09 f4       	brne	.+2      	; 0x1f64 <forward_jump+0x2fc>
    1f62:	54 c0       	rjmp	.+168    	; 0x200c <forward_jump+0x3a4>
    1f64:	80 91 2d 06 	lds	r24, 0x062D
    1f68:	88 23       	and	r24, r24
    1f6a:	09 f4       	brne	.+2      	; 0x1f6e <forward_jump+0x306>
    1f6c:	4f c0       	rjmp	.+158    	; 0x200c <forward_jump+0x3a4>
    1f6e:	80 91 08 01 	lds	r24, 0x0108
    1f72:	48 2f       	mov	r20, r24
    1f74:	55 27       	eor	r21, r21
    1f76:	47 fd       	sbrc	r20, 7
    1f78:	50 95       	com	r21
    1f7a:	80 91 07 01 	lds	r24, 0x0107
    1f7e:	99 27       	eor	r25, r25
    1f80:	87 fd       	sbrc	r24, 7
    1f82:	90 95       	com	r25
    1f84:	01 97       	sbiw	r24, 0x01	; 1
    1f86:	64 e1       	ldi	r22, 0x14	; 20
    1f88:	64 9f       	mul	r22, r20
    1f8a:	90 01       	movw	r18, r0
    1f8c:	65 9f       	mul	r22, r21
    1f8e:	30 0d       	add	r19, r0
    1f90:	11 24       	eor	r1, r1
    1f92:	82 0f       	add	r24, r18
    1f94:	93 1f       	adc	r25, r19
    1f96:	83 5b       	subi	r24, 0xB3	; 179
    1f98:	9a 4f       	sbci	r25, 0xFA	; 250
    1f9a:	fc 01       	movw	r30, r24
    1f9c:	80 81       	ld	r24, Z
    1f9e:	86 30       	cpi	r24, 0x06	; 6
    1fa0:	a9 f1       	breq	.+106    	; 0x200c <forward_jump+0x3a4>
		  {
			  level2[pos_y][pos_x] = 0;
    1fa2:	80 91 08 01 	lds	r24, 0x0108
    1fa6:	48 2f       	mov	r20, r24
    1fa8:	55 27       	eor	r21, r21
    1faa:	47 fd       	sbrc	r20, 7
    1fac:	50 95       	com	r21
    1fae:	80 91 07 01 	lds	r24, 0x0107
    1fb2:	99 27       	eor	r25, r25
    1fb4:	87 fd       	sbrc	r24, 7
    1fb6:	90 95       	com	r25
    1fb8:	64 e1       	ldi	r22, 0x14	; 20
    1fba:	64 9f       	mul	r22, r20
    1fbc:	90 01       	movw	r18, r0
    1fbe:	65 9f       	mul	r22, r21
    1fc0:	30 0d       	add	r19, r0
    1fc2:	11 24       	eor	r1, r1
    1fc4:	82 0f       	add	r24, r18
    1fc6:	93 1f       	adc	r25, r19
    1fc8:	83 5b       	subi	r24, 0xB3	; 179
    1fca:	9a 4f       	sbci	r25, 0xFA	; 250
    1fcc:	fc 01       	movw	r30, r24
    1fce:	10 82       	st	Z, r1
			  //level2[pos_y-1][pos_x] = 0;
			  level2[pos_y][pos_x-1] = YELLOW;
    1fd0:	80 91 08 01 	lds	r24, 0x0108
    1fd4:	48 2f       	mov	r20, r24
    1fd6:	55 27       	eor	r21, r21
    1fd8:	47 fd       	sbrc	r20, 7
    1fda:	50 95       	com	r21
    1fdc:	80 91 07 01 	lds	r24, 0x0107
    1fe0:	99 27       	eor	r25, r25
    1fe2:	87 fd       	sbrc	r24, 7
    1fe4:	90 95       	com	r25
    1fe6:	01 97       	sbiw	r24, 0x01	; 1
    1fe8:	64 e1       	ldi	r22, 0x14	; 20
    1fea:	64 9f       	mul	r22, r20
    1fec:	90 01       	movw	r18, r0
    1fee:	65 9f       	mul	r22, r21
    1ff0:	30 0d       	add	r19, r0
    1ff2:	11 24       	eor	r1, r1
    1ff4:	82 0f       	add	r24, r18
    1ff6:	93 1f       	adc	r25, r19
    1ff8:	83 5b       	subi	r24, 0xB3	; 179
    1ffa:	9a 4f       	sbci	r25, 0xFA	; 250
    1ffc:	27 e0       	ldi	r18, 0x07	; 7
    1ffe:	fc 01       	movw	r30, r24
    2000:	20 83       	st	Z, r18
			  pos_x--;
    2002:	80 91 07 01 	lds	r24, 0x0107
    2006:	81 50       	subi	r24, 0x01	; 1
    2008:	80 93 07 01 	sts	0x0107, r24
		  }
	  }

}
    200c:	df 91       	pop	r29
    200e:	cf 91       	pop	r28
    2010:	08 95       	ret

00002012 <whip>:
void whip()//the destroyer of worlds CANNOT DESTROY TILES or END LEVEL
{
    2012:	cf 93       	push	r28
    2014:	df 93       	push	r29
    2016:	cd b7       	in	r28, 0x3d	; 61
    2018:	de b7       	in	r29, 0x3e	; 62
	whipped = 1;
    201a:	81 e0       	ldi	r24, 0x01	; 1
    201c:	80 93 34 06 	sts	0x0634, r24
	has_moved = 1;
    2020:	81 e0       	ldi	r24, 0x01	; 1
    2022:	80 93 2a 06 	sts	0x062A, r24
	
	////////////// LEVEL 1 ////////////////////////////
	if(cur_level == 1)
    2026:	80 91 05 01 	lds	r24, 0x0105
    202a:	81 30       	cpi	r24, 0x01	; 1
    202c:	09 f0       	breq	.+2      	; 0x2030 <whip+0x1e>
    202e:	4b c2       	rjmp	.+1174   	; 0x24c6 <whip+0x4b4>
	{
		//cannot whip when on right edge of map
		if(pos_x+2 < lvl_sizes[level_size_index] && moving_right)
    2030:	80 91 07 01 	lds	r24, 0x0107
    2034:	99 27       	eor	r25, r25
    2036:	87 fd       	sbrc	r24, 7
    2038:	90 95       	com	r25
    203a:	9c 01       	movw	r18, r24
    203c:	2e 5f       	subi	r18, 0xFE	; 254
    203e:	3f 4f       	sbci	r19, 0xFF	; 255
    2040:	80 91 30 06 	lds	r24, 0x0630
    2044:	88 2f       	mov	r24, r24
    2046:	90 e0       	ldi	r25, 0x00	; 0
    2048:	83 51       	subi	r24, 0x13	; 19
    204a:	9a 4f       	sbci	r25, 0xFA	; 250
    204c:	fc 01       	movw	r30, r24
    204e:	80 81       	ld	r24, Z
    2050:	88 2f       	mov	r24, r24
    2052:	90 e0       	ldi	r25, 0x00	; 0
    2054:	28 17       	cp	r18, r24
    2056:	39 07       	cpc	r19, r25
    2058:	0c f0       	brlt	.+2      	; 0x205c <whip+0x4a>
    205a:	18 c1       	rjmp	.+560    	; 0x228c <whip+0x27a>
    205c:	80 91 2e 06 	lds	r24, 0x062E
    2060:	88 23       	and	r24, r24
    2062:	09 f4       	brne	.+2      	; 0x2066 <whip+0x54>
    2064:	13 c1       	rjmp	.+550    	; 0x228c <whip+0x27a>
		{
			//only times when 1 pixel tall
		   if((in_air || crouched))
    2066:	80 91 29 06 	lds	r24, 0x0629
    206a:	88 23       	and	r24, r24
    206c:	21 f4       	brne	.+8      	; 0x2076 <whip+0x64>
    206e:	80 91 2c 06 	lds	r24, 0x062C
    2072:	88 23       	and	r24, r24
    2074:	a9 f1       	breq	.+106    	; 0x20e0 <whip+0xce>
		   {
			whip_loc = level1[pos_y][pos_x+1];
    2076:	80 91 08 01 	lds	r24, 0x0108
    207a:	48 2f       	mov	r20, r24
    207c:	55 27       	eor	r21, r21
    207e:	47 fd       	sbrc	r20, 7
    2080:	50 95       	com	r21
    2082:	80 91 07 01 	lds	r24, 0x0107
    2086:	99 27       	eor	r25, r25
    2088:	87 fd       	sbrc	r24, 7
    208a:	90 95       	com	r25
    208c:	01 96       	adiw	r24, 0x01	; 1
    208e:	66 e8       	ldi	r22, 0x86	; 134
    2090:	64 9f       	mul	r22, r20
    2092:	90 01       	movw	r18, r0
    2094:	65 9f       	mul	r22, r21
    2096:	30 0d       	add	r19, r0
    2098:	11 24       	eor	r1, r1
    209a:	82 0f       	add	r24, r18
    209c:	93 1f       	adc	r25, r19
    209e:	83 5e       	subi	r24, 0xE3	; 227
    20a0:	9e 4f       	sbci	r25, 0xFE	; 254
    20a2:	fc 01       	movw	r30, r24
    20a4:	80 81       	ld	r24, Z
    20a6:	80 93 32 06 	sts	0x0632, r24
			whip_loc2 = level1[pos_y][pos_x+2];
    20aa:	80 91 08 01 	lds	r24, 0x0108
    20ae:	48 2f       	mov	r20, r24
    20b0:	55 27       	eor	r21, r21
    20b2:	47 fd       	sbrc	r20, 7
    20b4:	50 95       	com	r21
    20b6:	80 91 07 01 	lds	r24, 0x0107
    20ba:	99 27       	eor	r25, r25
    20bc:	87 fd       	sbrc	r24, 7
    20be:	90 95       	com	r25
    20c0:	02 96       	adiw	r24, 0x02	; 2
    20c2:	66 e8       	ldi	r22, 0x86	; 134
    20c4:	64 9f       	mul	r22, r20
    20c6:	90 01       	movw	r18, r0
    20c8:	65 9f       	mul	r22, r21
    20ca:	30 0d       	add	r19, r0
    20cc:	11 24       	eor	r1, r1
    20ce:	82 0f       	add	r24, r18
    20d0:	93 1f       	adc	r25, r19
    20d2:	83 5e       	subi	r24, 0xE3	; 227
    20d4:	9e 4f       	sbci	r25, 0xFE	; 254
    20d6:	fc 01       	movw	r30, r24
    20d8:	80 81       	ld	r24, Z
    20da:	80 93 33 06 	sts	0x0633, r24
    20de:	38 c0       	rjmp	.+112    	; 0x2150 <whip+0x13e>
		   }
		   else
		   {
			   //standing so shoot from head
			   whip_loc = level1[pos_y-1][pos_x+1];
    20e0:	80 91 08 01 	lds	r24, 0x0108
    20e4:	99 27       	eor	r25, r25
    20e6:	87 fd       	sbrc	r24, 7
    20e8:	90 95       	com	r25
    20ea:	ac 01       	movw	r20, r24
    20ec:	41 50       	subi	r20, 0x01	; 1
    20ee:	51 09       	sbc	r21, r1
    20f0:	80 91 07 01 	lds	r24, 0x0107
    20f4:	99 27       	eor	r25, r25
    20f6:	87 fd       	sbrc	r24, 7
    20f8:	90 95       	com	r25
    20fa:	01 96       	adiw	r24, 0x01	; 1
    20fc:	66 e8       	ldi	r22, 0x86	; 134
    20fe:	64 9f       	mul	r22, r20
    2100:	90 01       	movw	r18, r0
    2102:	65 9f       	mul	r22, r21
    2104:	30 0d       	add	r19, r0
    2106:	11 24       	eor	r1, r1
    2108:	82 0f       	add	r24, r18
    210a:	93 1f       	adc	r25, r19
    210c:	83 5e       	subi	r24, 0xE3	; 227
    210e:	9e 4f       	sbci	r25, 0xFE	; 254
    2110:	fc 01       	movw	r30, r24
    2112:	80 81       	ld	r24, Z
    2114:	80 93 32 06 	sts	0x0632, r24
			   whip_loc2 = level1[pos_y-1][pos_x+2];
    2118:	80 91 08 01 	lds	r24, 0x0108
    211c:	99 27       	eor	r25, r25
    211e:	87 fd       	sbrc	r24, 7
    2120:	90 95       	com	r25
    2122:	ac 01       	movw	r20, r24
    2124:	41 50       	subi	r20, 0x01	; 1
    2126:	51 09       	sbc	r21, r1
    2128:	80 91 07 01 	lds	r24, 0x0107
    212c:	99 27       	eor	r25, r25
    212e:	87 fd       	sbrc	r24, 7
    2130:	90 95       	com	r25
    2132:	02 96       	adiw	r24, 0x02	; 2
    2134:	66 e8       	ldi	r22, 0x86	; 134
    2136:	64 9f       	mul	r22, r20
    2138:	90 01       	movw	r18, r0
    213a:	65 9f       	mul	r22, r21
    213c:	30 0d       	add	r19, r0
    213e:	11 24       	eor	r1, r1
    2140:	82 0f       	add	r24, r18
    2142:	93 1f       	adc	r25, r19
    2144:	83 5e       	subi	r24, 0xE3	; 227
    2146:	9e 4f       	sbci	r25, 0xFE	; 254
    2148:	fc 01       	movw	r30, r24
    214a:	80 81       	ld	r24, Z
    214c:	80 93 33 06 	sts	0x0633, r24
		   }
		   
		  if((in_air || crouched) && whip_loc != TILE && whip_loc != EXIT_COLOR)
    2150:	80 91 29 06 	lds	r24, 0x0629
    2154:	88 23       	and	r24, r24
    2156:	29 f4       	brne	.+10     	; 0x2162 <whip+0x150>
    2158:	80 91 2c 06 	lds	r24, 0x062C
    215c:	88 23       	and	r24, r24
    215e:	09 f4       	brne	.+2      	; 0x2162 <whip+0x150>
    2160:	43 c0       	rjmp	.+134    	; 0x21e8 <whip+0x1d6>
    2162:	80 91 32 06 	lds	r24, 0x0632
    2166:	86 30       	cpi	r24, 0x06	; 6
    2168:	09 f4       	brne	.+2      	; 0x216c <whip+0x15a>
    216a:	3e c0       	rjmp	.+124    	; 0x21e8 <whip+0x1d6>
    216c:	80 91 32 06 	lds	r24, 0x0632
    2170:	85 30       	cpi	r24, 0x05	; 5
    2172:	d1 f1       	breq	.+116    	; 0x21e8 <whip+0x1d6>
		  {
		     level1[pos_y][pos_x+1] = WHIP;
    2174:	80 91 08 01 	lds	r24, 0x0108
    2178:	48 2f       	mov	r20, r24
    217a:	55 27       	eor	r21, r21
    217c:	47 fd       	sbrc	r20, 7
    217e:	50 95       	com	r21
    2180:	80 91 07 01 	lds	r24, 0x0107
    2184:	99 27       	eor	r25, r25
    2186:	87 fd       	sbrc	r24, 7
    2188:	90 95       	com	r25
    218a:	01 96       	adiw	r24, 0x01	; 1
    218c:	66 e8       	ldi	r22, 0x86	; 134
    218e:	64 9f       	mul	r22, r20
    2190:	90 01       	movw	r18, r0
    2192:	65 9f       	mul	r22, r21
    2194:	30 0d       	add	r19, r0
    2196:	11 24       	eor	r1, r1
    2198:	82 0f       	add	r24, r18
    219a:	93 1f       	adc	r25, r19
    219c:	83 5e       	subi	r24, 0xE3	; 227
    219e:	9e 4f       	sbci	r25, 0xFE	; 254
    21a0:	2a e0       	ldi	r18, 0x0A	; 10
    21a2:	fc 01       	movw	r30, r24
    21a4:	20 83       	st	Z, r18
		        if(whip_loc2 != TILE && whip_loc2 != EXIT_COLOR)
    21a6:	80 91 33 06 	lds	r24, 0x0633
    21aa:	86 30       	cpi	r24, 0x06	; 6
    21ac:	e9 f0       	breq	.+58     	; 0x21e8 <whip+0x1d6>
    21ae:	80 91 33 06 	lds	r24, 0x0633
    21b2:	85 30       	cpi	r24, 0x05	; 5
    21b4:	c9 f0       	breq	.+50     	; 0x21e8 <whip+0x1d6>
				{
			     level1[pos_y][pos_x+2] = WHIP;
    21b6:	80 91 08 01 	lds	r24, 0x0108
    21ba:	48 2f       	mov	r20, r24
    21bc:	55 27       	eor	r21, r21
    21be:	47 fd       	sbrc	r20, 7
    21c0:	50 95       	com	r21
    21c2:	80 91 07 01 	lds	r24, 0x0107
    21c6:	99 27       	eor	r25, r25
    21c8:	87 fd       	sbrc	r24, 7
    21ca:	90 95       	com	r25
    21cc:	02 96       	adiw	r24, 0x02	; 2
    21ce:	66 e8       	ldi	r22, 0x86	; 134
    21d0:	64 9f       	mul	r22, r20
    21d2:	90 01       	movw	r18, r0
    21d4:	65 9f       	mul	r22, r21
    21d6:	30 0d       	add	r19, r0
    21d8:	11 24       	eor	r1, r1
    21da:	82 0f       	add	r24, r18
    21dc:	93 1f       	adc	r25, r19
    21de:	83 5e       	subi	r24, 0xE3	; 227
    21e0:	9e 4f       	sbci	r25, 0xFE	; 254
    21e2:	2a e0       	ldi	r18, 0x0A	; 10
    21e4:	fc 01       	movw	r30, r24
    21e6:	20 83       	st	Z, r18
				}
		   }
		  //when standing
		  if((!in_air && !crouched) && whip_loc != TILE && whip_loc != EXIT_COLOR)
    21e8:	80 91 29 06 	lds	r24, 0x0629
    21ec:	88 23       	and	r24, r24
    21ee:	09 f0       	breq	.+2      	; 0x21f2 <whip+0x1e0>
    21f0:	4d c0       	rjmp	.+154    	; 0x228c <whip+0x27a>
    21f2:	80 91 2c 06 	lds	r24, 0x062C
    21f6:	88 23       	and	r24, r24
    21f8:	09 f0       	breq	.+2      	; 0x21fc <whip+0x1ea>
    21fa:	48 c0       	rjmp	.+144    	; 0x228c <whip+0x27a>
    21fc:	80 91 32 06 	lds	r24, 0x0632
    2200:	86 30       	cpi	r24, 0x06	; 6
    2202:	09 f4       	brne	.+2      	; 0x2206 <whip+0x1f4>
    2204:	43 c0       	rjmp	.+134    	; 0x228c <whip+0x27a>
    2206:	80 91 32 06 	lds	r24, 0x0632
    220a:	85 30       	cpi	r24, 0x05	; 5
    220c:	09 f4       	brne	.+2      	; 0x2210 <whip+0x1fe>
    220e:	3e c0       	rjmp	.+124    	; 0x228c <whip+0x27a>
		  {
			level1[pos_y-1][pos_x+1] = WHIP;
    2210:	80 91 08 01 	lds	r24, 0x0108
    2214:	99 27       	eor	r25, r25
    2216:	87 fd       	sbrc	r24, 7
    2218:	90 95       	com	r25
    221a:	ac 01       	movw	r20, r24
    221c:	41 50       	subi	r20, 0x01	; 1
    221e:	51 09       	sbc	r21, r1
    2220:	80 91 07 01 	lds	r24, 0x0107
    2224:	99 27       	eor	r25, r25
    2226:	87 fd       	sbrc	r24, 7
    2228:	90 95       	com	r25
    222a:	01 96       	adiw	r24, 0x01	; 1
    222c:	66 e8       	ldi	r22, 0x86	; 134
    222e:	64 9f       	mul	r22, r20
    2230:	90 01       	movw	r18, r0
    2232:	65 9f       	mul	r22, r21
    2234:	30 0d       	add	r19, r0
    2236:	11 24       	eor	r1, r1
    2238:	82 0f       	add	r24, r18
    223a:	93 1f       	adc	r25, r19
    223c:	83 5e       	subi	r24, 0xE3	; 227
    223e:	9e 4f       	sbci	r25, 0xFE	; 254
    2240:	2a e0       	ldi	r18, 0x0A	; 10
    2242:	fc 01       	movw	r30, r24
    2244:	20 83       	st	Z, r18
			if(whip_loc2 != TILE && whip_loc2 != EXIT_COLOR)
    2246:	80 91 33 06 	lds	r24, 0x0633
    224a:	86 30       	cpi	r24, 0x06	; 6
    224c:	f9 f0       	breq	.+62     	; 0x228c <whip+0x27a>
    224e:	80 91 33 06 	lds	r24, 0x0633
    2252:	85 30       	cpi	r24, 0x05	; 5
    2254:	d9 f0       	breq	.+54     	; 0x228c <whip+0x27a>
			{
			  level1[pos_y-1][pos_x+2] = WHIP;
    2256:	80 91 08 01 	lds	r24, 0x0108
    225a:	99 27       	eor	r25, r25
    225c:	87 fd       	sbrc	r24, 7
    225e:	90 95       	com	r25
    2260:	ac 01       	movw	r20, r24
    2262:	41 50       	subi	r20, 0x01	; 1
    2264:	51 09       	sbc	r21, r1
    2266:	80 91 07 01 	lds	r24, 0x0107
    226a:	99 27       	eor	r25, r25
    226c:	87 fd       	sbrc	r24, 7
    226e:	90 95       	com	r25
    2270:	02 96       	adiw	r24, 0x02	; 2
    2272:	66 e8       	ldi	r22, 0x86	; 134
    2274:	64 9f       	mul	r22, r20
    2276:	90 01       	movw	r18, r0
    2278:	65 9f       	mul	r22, r21
    227a:	30 0d       	add	r19, r0
    227c:	11 24       	eor	r1, r1
    227e:	82 0f       	add	r24, r18
    2280:	93 1f       	adc	r25, r19
    2282:	83 5e       	subi	r24, 0xE3	; 227
    2284:	9e 4f       	sbci	r25, 0xFE	; 254
    2286:	2a e0       	ldi	r18, 0x0A	; 10
    2288:	fc 01       	movw	r30, r24
    228a:	20 83       	st	Z, r18
		  }	
	    }
		
		///WHIP ON LEFT SIDE OF MAP
		//cannot whip when on right edge of map
		if(pos_x >= 2 && moving_left)
    228c:	80 91 07 01 	lds	r24, 0x0107
    2290:	82 30       	cpi	r24, 0x02	; 2
    2292:	0c f4       	brge	.+2      	; 0x2296 <whip+0x284>
    2294:	18 c1       	rjmp	.+560    	; 0x24c6 <whip+0x4b4>
    2296:	80 91 2d 06 	lds	r24, 0x062D
    229a:	88 23       	and	r24, r24
    229c:	09 f4       	brne	.+2      	; 0x22a0 <whip+0x28e>
    229e:	13 c1       	rjmp	.+550    	; 0x24c6 <whip+0x4b4>
		{
			//only times when 1 pixel tall
			if((in_air || crouched))
    22a0:	80 91 29 06 	lds	r24, 0x0629
    22a4:	88 23       	and	r24, r24
    22a6:	21 f4       	brne	.+8      	; 0x22b0 <whip+0x29e>
    22a8:	80 91 2c 06 	lds	r24, 0x062C
    22ac:	88 23       	and	r24, r24
    22ae:	a9 f1       	breq	.+106    	; 0x231a <whip+0x308>
			{
				whip_loc = level1[pos_y][pos_x-1];
    22b0:	80 91 08 01 	lds	r24, 0x0108
    22b4:	48 2f       	mov	r20, r24
    22b6:	55 27       	eor	r21, r21
    22b8:	47 fd       	sbrc	r20, 7
    22ba:	50 95       	com	r21
    22bc:	80 91 07 01 	lds	r24, 0x0107
    22c0:	99 27       	eor	r25, r25
    22c2:	87 fd       	sbrc	r24, 7
    22c4:	90 95       	com	r25
    22c6:	01 97       	sbiw	r24, 0x01	; 1
    22c8:	66 e8       	ldi	r22, 0x86	; 134
    22ca:	64 9f       	mul	r22, r20
    22cc:	90 01       	movw	r18, r0
    22ce:	65 9f       	mul	r22, r21
    22d0:	30 0d       	add	r19, r0
    22d2:	11 24       	eor	r1, r1
    22d4:	82 0f       	add	r24, r18
    22d6:	93 1f       	adc	r25, r19
    22d8:	83 5e       	subi	r24, 0xE3	; 227
    22da:	9e 4f       	sbci	r25, 0xFE	; 254
    22dc:	fc 01       	movw	r30, r24
    22de:	80 81       	ld	r24, Z
    22e0:	80 93 32 06 	sts	0x0632, r24
				whip_loc2 = level1[pos_y][pos_x-2];
    22e4:	80 91 08 01 	lds	r24, 0x0108
    22e8:	48 2f       	mov	r20, r24
    22ea:	55 27       	eor	r21, r21
    22ec:	47 fd       	sbrc	r20, 7
    22ee:	50 95       	com	r21
    22f0:	80 91 07 01 	lds	r24, 0x0107
    22f4:	99 27       	eor	r25, r25
    22f6:	87 fd       	sbrc	r24, 7
    22f8:	90 95       	com	r25
    22fa:	02 97       	sbiw	r24, 0x02	; 2
    22fc:	66 e8       	ldi	r22, 0x86	; 134
    22fe:	64 9f       	mul	r22, r20
    2300:	90 01       	movw	r18, r0
    2302:	65 9f       	mul	r22, r21
    2304:	30 0d       	add	r19, r0
    2306:	11 24       	eor	r1, r1
    2308:	82 0f       	add	r24, r18
    230a:	93 1f       	adc	r25, r19
    230c:	83 5e       	subi	r24, 0xE3	; 227
    230e:	9e 4f       	sbci	r25, 0xFE	; 254
    2310:	fc 01       	movw	r30, r24
    2312:	80 81       	ld	r24, Z
    2314:	80 93 33 06 	sts	0x0633, r24
    2318:	38 c0       	rjmp	.+112    	; 0x238a <whip+0x378>
			}
			else
			{
				//standing so shoot from head
				whip_loc = level1[pos_y-1][pos_x-1];
    231a:	80 91 08 01 	lds	r24, 0x0108
    231e:	99 27       	eor	r25, r25
    2320:	87 fd       	sbrc	r24, 7
    2322:	90 95       	com	r25
    2324:	ac 01       	movw	r20, r24
    2326:	41 50       	subi	r20, 0x01	; 1
    2328:	51 09       	sbc	r21, r1
    232a:	80 91 07 01 	lds	r24, 0x0107
    232e:	99 27       	eor	r25, r25
    2330:	87 fd       	sbrc	r24, 7
    2332:	90 95       	com	r25
    2334:	01 97       	sbiw	r24, 0x01	; 1
    2336:	66 e8       	ldi	r22, 0x86	; 134
    2338:	64 9f       	mul	r22, r20
    233a:	90 01       	movw	r18, r0
    233c:	65 9f       	mul	r22, r21
    233e:	30 0d       	add	r19, r0
    2340:	11 24       	eor	r1, r1
    2342:	82 0f       	add	r24, r18
    2344:	93 1f       	adc	r25, r19
    2346:	83 5e       	subi	r24, 0xE3	; 227
    2348:	9e 4f       	sbci	r25, 0xFE	; 254
    234a:	fc 01       	movw	r30, r24
    234c:	80 81       	ld	r24, Z
    234e:	80 93 32 06 	sts	0x0632, r24
				whip_loc2 = level1[pos_y-1][pos_x-2];
    2352:	80 91 08 01 	lds	r24, 0x0108
    2356:	99 27       	eor	r25, r25
    2358:	87 fd       	sbrc	r24, 7
    235a:	90 95       	com	r25
    235c:	ac 01       	movw	r20, r24
    235e:	41 50       	subi	r20, 0x01	; 1
    2360:	51 09       	sbc	r21, r1
    2362:	80 91 07 01 	lds	r24, 0x0107
    2366:	99 27       	eor	r25, r25
    2368:	87 fd       	sbrc	r24, 7
    236a:	90 95       	com	r25
    236c:	02 97       	sbiw	r24, 0x02	; 2
    236e:	66 e8       	ldi	r22, 0x86	; 134
    2370:	64 9f       	mul	r22, r20
    2372:	90 01       	movw	r18, r0
    2374:	65 9f       	mul	r22, r21
    2376:	30 0d       	add	r19, r0
    2378:	11 24       	eor	r1, r1
    237a:	82 0f       	add	r24, r18
    237c:	93 1f       	adc	r25, r19
    237e:	83 5e       	subi	r24, 0xE3	; 227
    2380:	9e 4f       	sbci	r25, 0xFE	; 254
    2382:	fc 01       	movw	r30, r24
    2384:	80 81       	ld	r24, Z
    2386:	80 93 33 06 	sts	0x0633, r24
			}
			
			if((in_air || crouched) && whip_loc != TILE && whip_loc != EXIT_COLOR)
    238a:	80 91 29 06 	lds	r24, 0x0629
    238e:	88 23       	and	r24, r24
    2390:	29 f4       	brne	.+10     	; 0x239c <whip+0x38a>
    2392:	80 91 2c 06 	lds	r24, 0x062C
    2396:	88 23       	and	r24, r24
    2398:	09 f4       	brne	.+2      	; 0x239c <whip+0x38a>
    239a:	43 c0       	rjmp	.+134    	; 0x2422 <whip+0x410>
    239c:	80 91 32 06 	lds	r24, 0x0632
    23a0:	86 30       	cpi	r24, 0x06	; 6
    23a2:	09 f4       	brne	.+2      	; 0x23a6 <whip+0x394>
    23a4:	3e c0       	rjmp	.+124    	; 0x2422 <whip+0x410>
    23a6:	80 91 32 06 	lds	r24, 0x0632
    23aa:	85 30       	cpi	r24, 0x05	; 5
    23ac:	d1 f1       	breq	.+116    	; 0x2422 <whip+0x410>
			{
				level1[pos_y][pos_x-1] = WHIP;
    23ae:	80 91 08 01 	lds	r24, 0x0108
    23b2:	48 2f       	mov	r20, r24
    23b4:	55 27       	eor	r21, r21
    23b6:	47 fd       	sbrc	r20, 7
    23b8:	50 95       	com	r21
    23ba:	80 91 07 01 	lds	r24, 0x0107
    23be:	99 27       	eor	r25, r25
    23c0:	87 fd       	sbrc	r24, 7
    23c2:	90 95       	com	r25
    23c4:	01 97       	sbiw	r24, 0x01	; 1
    23c6:	66 e8       	ldi	r22, 0x86	; 134
    23c8:	64 9f       	mul	r22, r20
    23ca:	90 01       	movw	r18, r0
    23cc:	65 9f       	mul	r22, r21
    23ce:	30 0d       	add	r19, r0
    23d0:	11 24       	eor	r1, r1
    23d2:	82 0f       	add	r24, r18
    23d4:	93 1f       	adc	r25, r19
    23d6:	83 5e       	subi	r24, 0xE3	; 227
    23d8:	9e 4f       	sbci	r25, 0xFE	; 254
    23da:	2a e0       	ldi	r18, 0x0A	; 10
    23dc:	fc 01       	movw	r30, r24
    23de:	20 83       	st	Z, r18
				if(whip_loc2 != TILE && whip_loc2 != EXIT_COLOR)
    23e0:	80 91 33 06 	lds	r24, 0x0633
    23e4:	86 30       	cpi	r24, 0x06	; 6
    23e6:	e9 f0       	breq	.+58     	; 0x2422 <whip+0x410>
    23e8:	80 91 33 06 	lds	r24, 0x0633
    23ec:	85 30       	cpi	r24, 0x05	; 5
    23ee:	c9 f0       	breq	.+50     	; 0x2422 <whip+0x410>
				{
					level1[pos_y][pos_x-2] = WHIP;
    23f0:	80 91 08 01 	lds	r24, 0x0108
    23f4:	48 2f       	mov	r20, r24
    23f6:	55 27       	eor	r21, r21
    23f8:	47 fd       	sbrc	r20, 7
    23fa:	50 95       	com	r21
    23fc:	80 91 07 01 	lds	r24, 0x0107
    2400:	99 27       	eor	r25, r25
    2402:	87 fd       	sbrc	r24, 7
    2404:	90 95       	com	r25
    2406:	02 97       	sbiw	r24, 0x02	; 2
    2408:	66 e8       	ldi	r22, 0x86	; 134
    240a:	64 9f       	mul	r22, r20
    240c:	90 01       	movw	r18, r0
    240e:	65 9f       	mul	r22, r21
    2410:	30 0d       	add	r19, r0
    2412:	11 24       	eor	r1, r1
    2414:	82 0f       	add	r24, r18
    2416:	93 1f       	adc	r25, r19
    2418:	83 5e       	subi	r24, 0xE3	; 227
    241a:	9e 4f       	sbci	r25, 0xFE	; 254
    241c:	2a e0       	ldi	r18, 0x0A	; 10
    241e:	fc 01       	movw	r30, r24
    2420:	20 83       	st	Z, r18
				}
			}
			//when standing
			if((!in_air && !crouched) && whip_loc != TILE && whip_loc != EXIT_COLOR)
    2422:	80 91 29 06 	lds	r24, 0x0629
    2426:	88 23       	and	r24, r24
    2428:	09 f0       	breq	.+2      	; 0x242c <whip+0x41a>
    242a:	4d c0       	rjmp	.+154    	; 0x24c6 <whip+0x4b4>
    242c:	80 91 2c 06 	lds	r24, 0x062C
    2430:	88 23       	and	r24, r24
    2432:	09 f0       	breq	.+2      	; 0x2436 <whip+0x424>
    2434:	48 c0       	rjmp	.+144    	; 0x24c6 <whip+0x4b4>
    2436:	80 91 32 06 	lds	r24, 0x0632
    243a:	86 30       	cpi	r24, 0x06	; 6
    243c:	09 f4       	brne	.+2      	; 0x2440 <whip+0x42e>
    243e:	43 c0       	rjmp	.+134    	; 0x24c6 <whip+0x4b4>
    2440:	80 91 32 06 	lds	r24, 0x0632
    2444:	85 30       	cpi	r24, 0x05	; 5
    2446:	09 f4       	brne	.+2      	; 0x244a <whip+0x438>
    2448:	3e c0       	rjmp	.+124    	; 0x24c6 <whip+0x4b4>
			{
				level1[pos_y-1][pos_x-1] = WHIP;
    244a:	80 91 08 01 	lds	r24, 0x0108
    244e:	99 27       	eor	r25, r25
    2450:	87 fd       	sbrc	r24, 7
    2452:	90 95       	com	r25
    2454:	ac 01       	movw	r20, r24
    2456:	41 50       	subi	r20, 0x01	; 1
    2458:	51 09       	sbc	r21, r1
    245a:	80 91 07 01 	lds	r24, 0x0107
    245e:	99 27       	eor	r25, r25
    2460:	87 fd       	sbrc	r24, 7
    2462:	90 95       	com	r25
    2464:	01 97       	sbiw	r24, 0x01	; 1
    2466:	66 e8       	ldi	r22, 0x86	; 134
    2468:	64 9f       	mul	r22, r20
    246a:	90 01       	movw	r18, r0
    246c:	65 9f       	mul	r22, r21
    246e:	30 0d       	add	r19, r0
    2470:	11 24       	eor	r1, r1
    2472:	82 0f       	add	r24, r18
    2474:	93 1f       	adc	r25, r19
    2476:	83 5e       	subi	r24, 0xE3	; 227
    2478:	9e 4f       	sbci	r25, 0xFE	; 254
    247a:	2a e0       	ldi	r18, 0x0A	; 10
    247c:	fc 01       	movw	r30, r24
    247e:	20 83       	st	Z, r18
				if(whip_loc2 != TILE && whip_loc2 != EXIT_COLOR)
    2480:	80 91 33 06 	lds	r24, 0x0633
    2484:	86 30       	cpi	r24, 0x06	; 6
    2486:	f9 f0       	breq	.+62     	; 0x24c6 <whip+0x4b4>
    2488:	80 91 33 06 	lds	r24, 0x0633
    248c:	85 30       	cpi	r24, 0x05	; 5
    248e:	d9 f0       	breq	.+54     	; 0x24c6 <whip+0x4b4>
				{
					level1[pos_y-1][pos_x-2] = WHIP;
    2490:	80 91 08 01 	lds	r24, 0x0108
    2494:	99 27       	eor	r25, r25
    2496:	87 fd       	sbrc	r24, 7
    2498:	90 95       	com	r25
    249a:	ac 01       	movw	r20, r24
    249c:	41 50       	subi	r20, 0x01	; 1
    249e:	51 09       	sbc	r21, r1
    24a0:	80 91 07 01 	lds	r24, 0x0107
    24a4:	99 27       	eor	r25, r25
    24a6:	87 fd       	sbrc	r24, 7
    24a8:	90 95       	com	r25
    24aa:	02 97       	sbiw	r24, 0x02	; 2
    24ac:	66 e8       	ldi	r22, 0x86	; 134
    24ae:	64 9f       	mul	r22, r20
    24b0:	90 01       	movw	r18, r0
    24b2:	65 9f       	mul	r22, r21
    24b4:	30 0d       	add	r19, r0
    24b6:	11 24       	eor	r1, r1
    24b8:	82 0f       	add	r24, r18
    24ba:	93 1f       	adc	r25, r19
    24bc:	83 5e       	subi	r24, 0xE3	; 227
    24be:	9e 4f       	sbci	r25, 0xFE	; 254
    24c0:	2a e0       	ldi	r18, 0x0A	; 10
    24c2:	fc 01       	movw	r30, r24
    24c4:	20 83       	st	Z, r18
			}
		}
     }
	
	///////////////////////// LEVEL 2 ////////////////////////////
	if(cur_level == 2)
    24c6:	80 91 05 01 	lds	r24, 0x0105
    24ca:	82 30       	cpi	r24, 0x02	; 2
    24cc:	09 f0       	breq	.+2      	; 0x24d0 <whip+0x4be>
    24ce:	4b c2       	rjmp	.+1174   	; 0x2966 <whip+0x954>
	{
		//cannot whip when on right edge of map
		if(pos_x+2 < lvl_sizes[level_size_index] && moving_right)
    24d0:	80 91 07 01 	lds	r24, 0x0107
    24d4:	99 27       	eor	r25, r25
    24d6:	87 fd       	sbrc	r24, 7
    24d8:	90 95       	com	r25
    24da:	9c 01       	movw	r18, r24
    24dc:	2e 5f       	subi	r18, 0xFE	; 254
    24de:	3f 4f       	sbci	r19, 0xFF	; 255
    24e0:	80 91 30 06 	lds	r24, 0x0630
    24e4:	88 2f       	mov	r24, r24
    24e6:	90 e0       	ldi	r25, 0x00	; 0
    24e8:	83 51       	subi	r24, 0x13	; 19
    24ea:	9a 4f       	sbci	r25, 0xFA	; 250
    24ec:	fc 01       	movw	r30, r24
    24ee:	80 81       	ld	r24, Z
    24f0:	88 2f       	mov	r24, r24
    24f2:	90 e0       	ldi	r25, 0x00	; 0
    24f4:	28 17       	cp	r18, r24
    24f6:	39 07       	cpc	r19, r25
    24f8:	0c f0       	brlt	.+2      	; 0x24fc <whip+0x4ea>
    24fa:	18 c1       	rjmp	.+560    	; 0x272c <whip+0x71a>
    24fc:	80 91 2e 06 	lds	r24, 0x062E
    2500:	88 23       	and	r24, r24
    2502:	09 f4       	brne	.+2      	; 0x2506 <whip+0x4f4>
    2504:	13 c1       	rjmp	.+550    	; 0x272c <whip+0x71a>
		{
			//only times when 1 pixel tall
			if((in_air || crouched))
    2506:	80 91 29 06 	lds	r24, 0x0629
    250a:	88 23       	and	r24, r24
    250c:	21 f4       	brne	.+8      	; 0x2516 <whip+0x504>
    250e:	80 91 2c 06 	lds	r24, 0x062C
    2512:	88 23       	and	r24, r24
    2514:	a9 f1       	breq	.+106    	; 0x2580 <whip+0x56e>
			{
				whip_loc = level2[pos_y][pos_x+1];
    2516:	80 91 08 01 	lds	r24, 0x0108
    251a:	48 2f       	mov	r20, r24
    251c:	55 27       	eor	r21, r21
    251e:	47 fd       	sbrc	r20, 7
    2520:	50 95       	com	r21
    2522:	80 91 07 01 	lds	r24, 0x0107
    2526:	99 27       	eor	r25, r25
    2528:	87 fd       	sbrc	r24, 7
    252a:	90 95       	com	r25
    252c:	01 96       	adiw	r24, 0x01	; 1
    252e:	64 e1       	ldi	r22, 0x14	; 20
    2530:	64 9f       	mul	r22, r20
    2532:	90 01       	movw	r18, r0
    2534:	65 9f       	mul	r22, r21
    2536:	30 0d       	add	r19, r0
    2538:	11 24       	eor	r1, r1
    253a:	82 0f       	add	r24, r18
    253c:	93 1f       	adc	r25, r19
    253e:	83 5b       	subi	r24, 0xB3	; 179
    2540:	9a 4f       	sbci	r25, 0xFA	; 250
    2542:	fc 01       	movw	r30, r24
    2544:	80 81       	ld	r24, Z
    2546:	80 93 32 06 	sts	0x0632, r24
				whip_loc2 = level2[pos_y][pos_x+2];
    254a:	80 91 08 01 	lds	r24, 0x0108
    254e:	48 2f       	mov	r20, r24
    2550:	55 27       	eor	r21, r21
    2552:	47 fd       	sbrc	r20, 7
    2554:	50 95       	com	r21
    2556:	80 91 07 01 	lds	r24, 0x0107
    255a:	99 27       	eor	r25, r25
    255c:	87 fd       	sbrc	r24, 7
    255e:	90 95       	com	r25
    2560:	02 96       	adiw	r24, 0x02	; 2
    2562:	64 e1       	ldi	r22, 0x14	; 20
    2564:	64 9f       	mul	r22, r20
    2566:	90 01       	movw	r18, r0
    2568:	65 9f       	mul	r22, r21
    256a:	30 0d       	add	r19, r0
    256c:	11 24       	eor	r1, r1
    256e:	82 0f       	add	r24, r18
    2570:	93 1f       	adc	r25, r19
    2572:	83 5b       	subi	r24, 0xB3	; 179
    2574:	9a 4f       	sbci	r25, 0xFA	; 250
    2576:	fc 01       	movw	r30, r24
    2578:	80 81       	ld	r24, Z
    257a:	80 93 33 06 	sts	0x0633, r24
    257e:	38 c0       	rjmp	.+112    	; 0x25f0 <whip+0x5de>
			}
			else
			{
				//standing so shoot from head
				whip_loc = level2[pos_y-1][pos_x+1];
    2580:	80 91 08 01 	lds	r24, 0x0108
    2584:	99 27       	eor	r25, r25
    2586:	87 fd       	sbrc	r24, 7
    2588:	90 95       	com	r25
    258a:	ac 01       	movw	r20, r24
    258c:	41 50       	subi	r20, 0x01	; 1
    258e:	51 09       	sbc	r21, r1
    2590:	80 91 07 01 	lds	r24, 0x0107
    2594:	99 27       	eor	r25, r25
    2596:	87 fd       	sbrc	r24, 7
    2598:	90 95       	com	r25
    259a:	01 96       	adiw	r24, 0x01	; 1
    259c:	64 e1       	ldi	r22, 0x14	; 20
    259e:	64 9f       	mul	r22, r20
    25a0:	90 01       	movw	r18, r0
    25a2:	65 9f       	mul	r22, r21
    25a4:	30 0d       	add	r19, r0
    25a6:	11 24       	eor	r1, r1
    25a8:	82 0f       	add	r24, r18
    25aa:	93 1f       	adc	r25, r19
    25ac:	83 5b       	subi	r24, 0xB3	; 179
    25ae:	9a 4f       	sbci	r25, 0xFA	; 250
    25b0:	fc 01       	movw	r30, r24
    25b2:	80 81       	ld	r24, Z
    25b4:	80 93 32 06 	sts	0x0632, r24
				whip_loc2 = level2[pos_y-1][pos_x+2];
    25b8:	80 91 08 01 	lds	r24, 0x0108
    25bc:	99 27       	eor	r25, r25
    25be:	87 fd       	sbrc	r24, 7
    25c0:	90 95       	com	r25
    25c2:	ac 01       	movw	r20, r24
    25c4:	41 50       	subi	r20, 0x01	; 1
    25c6:	51 09       	sbc	r21, r1
    25c8:	80 91 07 01 	lds	r24, 0x0107
    25cc:	99 27       	eor	r25, r25
    25ce:	87 fd       	sbrc	r24, 7
    25d0:	90 95       	com	r25
    25d2:	02 96       	adiw	r24, 0x02	; 2
    25d4:	64 e1       	ldi	r22, 0x14	; 20
    25d6:	64 9f       	mul	r22, r20
    25d8:	90 01       	movw	r18, r0
    25da:	65 9f       	mul	r22, r21
    25dc:	30 0d       	add	r19, r0
    25de:	11 24       	eor	r1, r1
    25e0:	82 0f       	add	r24, r18
    25e2:	93 1f       	adc	r25, r19
    25e4:	83 5b       	subi	r24, 0xB3	; 179
    25e6:	9a 4f       	sbci	r25, 0xFA	; 250
    25e8:	fc 01       	movw	r30, r24
    25ea:	80 81       	ld	r24, Z
    25ec:	80 93 33 06 	sts	0x0633, r24
			}
			
			if((in_air || crouched) && whip_loc != TILE && whip_loc != EXIT_COLOR)
    25f0:	80 91 29 06 	lds	r24, 0x0629
    25f4:	88 23       	and	r24, r24
    25f6:	29 f4       	brne	.+10     	; 0x2602 <whip+0x5f0>
    25f8:	80 91 2c 06 	lds	r24, 0x062C
    25fc:	88 23       	and	r24, r24
    25fe:	09 f4       	brne	.+2      	; 0x2602 <whip+0x5f0>
    2600:	43 c0       	rjmp	.+134    	; 0x2688 <whip+0x676>
    2602:	80 91 32 06 	lds	r24, 0x0632
    2606:	86 30       	cpi	r24, 0x06	; 6
    2608:	09 f4       	brne	.+2      	; 0x260c <whip+0x5fa>
    260a:	3e c0       	rjmp	.+124    	; 0x2688 <whip+0x676>
    260c:	80 91 32 06 	lds	r24, 0x0632
    2610:	85 30       	cpi	r24, 0x05	; 5
    2612:	d1 f1       	breq	.+116    	; 0x2688 <whip+0x676>
			{
				level2[pos_y][pos_x+1] = WHIP;
    2614:	80 91 08 01 	lds	r24, 0x0108
    2618:	48 2f       	mov	r20, r24
    261a:	55 27       	eor	r21, r21
    261c:	47 fd       	sbrc	r20, 7
    261e:	50 95       	com	r21
    2620:	80 91 07 01 	lds	r24, 0x0107
    2624:	99 27       	eor	r25, r25
    2626:	87 fd       	sbrc	r24, 7
    2628:	90 95       	com	r25
    262a:	01 96       	adiw	r24, 0x01	; 1
    262c:	64 e1       	ldi	r22, 0x14	; 20
    262e:	64 9f       	mul	r22, r20
    2630:	90 01       	movw	r18, r0
    2632:	65 9f       	mul	r22, r21
    2634:	30 0d       	add	r19, r0
    2636:	11 24       	eor	r1, r1
    2638:	82 0f       	add	r24, r18
    263a:	93 1f       	adc	r25, r19
    263c:	83 5b       	subi	r24, 0xB3	; 179
    263e:	9a 4f       	sbci	r25, 0xFA	; 250
    2640:	2a e0       	ldi	r18, 0x0A	; 10
    2642:	fc 01       	movw	r30, r24
    2644:	20 83       	st	Z, r18
				if(whip_loc2 != TILE && whip_loc2 != EXIT_COLOR)
    2646:	80 91 33 06 	lds	r24, 0x0633
    264a:	86 30       	cpi	r24, 0x06	; 6
    264c:	e9 f0       	breq	.+58     	; 0x2688 <whip+0x676>
    264e:	80 91 33 06 	lds	r24, 0x0633
    2652:	85 30       	cpi	r24, 0x05	; 5
    2654:	c9 f0       	breq	.+50     	; 0x2688 <whip+0x676>
				{
					level2[pos_y][pos_x+2] = WHIP;
    2656:	80 91 08 01 	lds	r24, 0x0108
    265a:	48 2f       	mov	r20, r24
    265c:	55 27       	eor	r21, r21
    265e:	47 fd       	sbrc	r20, 7
    2660:	50 95       	com	r21
    2662:	80 91 07 01 	lds	r24, 0x0107
    2666:	99 27       	eor	r25, r25
    2668:	87 fd       	sbrc	r24, 7
    266a:	90 95       	com	r25
    266c:	02 96       	adiw	r24, 0x02	; 2
    266e:	64 e1       	ldi	r22, 0x14	; 20
    2670:	64 9f       	mul	r22, r20
    2672:	90 01       	movw	r18, r0
    2674:	65 9f       	mul	r22, r21
    2676:	30 0d       	add	r19, r0
    2678:	11 24       	eor	r1, r1
    267a:	82 0f       	add	r24, r18
    267c:	93 1f       	adc	r25, r19
    267e:	83 5b       	subi	r24, 0xB3	; 179
    2680:	9a 4f       	sbci	r25, 0xFA	; 250
    2682:	2a e0       	ldi	r18, 0x0A	; 10
    2684:	fc 01       	movw	r30, r24
    2686:	20 83       	st	Z, r18
				}
			}
			//when standing
			if((!in_air && !crouched) && whip_loc != TILE && whip_loc != EXIT_COLOR)
    2688:	80 91 29 06 	lds	r24, 0x0629
    268c:	88 23       	and	r24, r24
    268e:	09 f0       	breq	.+2      	; 0x2692 <whip+0x680>
    2690:	4d c0       	rjmp	.+154    	; 0x272c <whip+0x71a>
    2692:	80 91 2c 06 	lds	r24, 0x062C
    2696:	88 23       	and	r24, r24
    2698:	09 f0       	breq	.+2      	; 0x269c <whip+0x68a>
    269a:	48 c0       	rjmp	.+144    	; 0x272c <whip+0x71a>
    269c:	80 91 32 06 	lds	r24, 0x0632
    26a0:	86 30       	cpi	r24, 0x06	; 6
    26a2:	09 f4       	brne	.+2      	; 0x26a6 <whip+0x694>
    26a4:	43 c0       	rjmp	.+134    	; 0x272c <whip+0x71a>
    26a6:	80 91 32 06 	lds	r24, 0x0632
    26aa:	85 30       	cpi	r24, 0x05	; 5
    26ac:	09 f4       	brne	.+2      	; 0x26b0 <whip+0x69e>
    26ae:	3e c0       	rjmp	.+124    	; 0x272c <whip+0x71a>
			{
				level2[pos_y-1][pos_x+1] = WHIP;
    26b0:	80 91 08 01 	lds	r24, 0x0108
    26b4:	99 27       	eor	r25, r25
    26b6:	87 fd       	sbrc	r24, 7
    26b8:	90 95       	com	r25
    26ba:	ac 01       	movw	r20, r24
    26bc:	41 50       	subi	r20, 0x01	; 1
    26be:	51 09       	sbc	r21, r1
    26c0:	80 91 07 01 	lds	r24, 0x0107
    26c4:	99 27       	eor	r25, r25
    26c6:	87 fd       	sbrc	r24, 7
    26c8:	90 95       	com	r25
    26ca:	01 96       	adiw	r24, 0x01	; 1
    26cc:	64 e1       	ldi	r22, 0x14	; 20
    26ce:	64 9f       	mul	r22, r20
    26d0:	90 01       	movw	r18, r0
    26d2:	65 9f       	mul	r22, r21
    26d4:	30 0d       	add	r19, r0
    26d6:	11 24       	eor	r1, r1
    26d8:	82 0f       	add	r24, r18
    26da:	93 1f       	adc	r25, r19
    26dc:	83 5b       	subi	r24, 0xB3	; 179
    26de:	9a 4f       	sbci	r25, 0xFA	; 250
    26e0:	2a e0       	ldi	r18, 0x0A	; 10
    26e2:	fc 01       	movw	r30, r24
    26e4:	20 83       	st	Z, r18
				if(whip_loc2 != TILE && whip_loc2 != EXIT_COLOR)
    26e6:	80 91 33 06 	lds	r24, 0x0633
    26ea:	86 30       	cpi	r24, 0x06	; 6
    26ec:	f9 f0       	breq	.+62     	; 0x272c <whip+0x71a>
    26ee:	80 91 33 06 	lds	r24, 0x0633
    26f2:	85 30       	cpi	r24, 0x05	; 5
    26f4:	d9 f0       	breq	.+54     	; 0x272c <whip+0x71a>
				{
					level2[pos_y-1][pos_x+2] = WHIP;
    26f6:	80 91 08 01 	lds	r24, 0x0108
    26fa:	99 27       	eor	r25, r25
    26fc:	87 fd       	sbrc	r24, 7
    26fe:	90 95       	com	r25
    2700:	ac 01       	movw	r20, r24
    2702:	41 50       	subi	r20, 0x01	; 1
    2704:	51 09       	sbc	r21, r1
    2706:	80 91 07 01 	lds	r24, 0x0107
    270a:	99 27       	eor	r25, r25
    270c:	87 fd       	sbrc	r24, 7
    270e:	90 95       	com	r25
    2710:	02 96       	adiw	r24, 0x02	; 2
    2712:	64 e1       	ldi	r22, 0x14	; 20
    2714:	64 9f       	mul	r22, r20
    2716:	90 01       	movw	r18, r0
    2718:	65 9f       	mul	r22, r21
    271a:	30 0d       	add	r19, r0
    271c:	11 24       	eor	r1, r1
    271e:	82 0f       	add	r24, r18
    2720:	93 1f       	adc	r25, r19
    2722:	83 5b       	subi	r24, 0xB3	; 179
    2724:	9a 4f       	sbci	r25, 0xFA	; 250
    2726:	2a e0       	ldi	r18, 0x0A	; 10
    2728:	fc 01       	movw	r30, r24
    272a:	20 83       	st	Z, r18
			}
		}
		
		///WHIP ON LEFT SIDE OF MAP
		//cannot whip when on right edge of map
		if(pos_x >= 2 && moving_left)
    272c:	80 91 07 01 	lds	r24, 0x0107
    2730:	82 30       	cpi	r24, 0x02	; 2
    2732:	0c f4       	brge	.+2      	; 0x2736 <whip+0x724>
    2734:	18 c1       	rjmp	.+560    	; 0x2966 <whip+0x954>
    2736:	80 91 2d 06 	lds	r24, 0x062D
    273a:	88 23       	and	r24, r24
    273c:	09 f4       	brne	.+2      	; 0x2740 <whip+0x72e>
    273e:	13 c1       	rjmp	.+550    	; 0x2966 <whip+0x954>
		{
			//only times when 1 pixel tall
			if((in_air || crouched))
    2740:	80 91 29 06 	lds	r24, 0x0629
    2744:	88 23       	and	r24, r24
    2746:	21 f4       	brne	.+8      	; 0x2750 <whip+0x73e>
    2748:	80 91 2c 06 	lds	r24, 0x062C
    274c:	88 23       	and	r24, r24
    274e:	a9 f1       	breq	.+106    	; 0x27ba <whip+0x7a8>
			{
				whip_loc = level2[pos_y][pos_x-1];
    2750:	80 91 08 01 	lds	r24, 0x0108
    2754:	48 2f       	mov	r20, r24
    2756:	55 27       	eor	r21, r21
    2758:	47 fd       	sbrc	r20, 7
    275a:	50 95       	com	r21
    275c:	80 91 07 01 	lds	r24, 0x0107
    2760:	99 27       	eor	r25, r25
    2762:	87 fd       	sbrc	r24, 7
    2764:	90 95       	com	r25
    2766:	01 97       	sbiw	r24, 0x01	; 1
    2768:	64 e1       	ldi	r22, 0x14	; 20
    276a:	64 9f       	mul	r22, r20
    276c:	90 01       	movw	r18, r0
    276e:	65 9f       	mul	r22, r21
    2770:	30 0d       	add	r19, r0
    2772:	11 24       	eor	r1, r1
    2774:	82 0f       	add	r24, r18
    2776:	93 1f       	adc	r25, r19
    2778:	83 5b       	subi	r24, 0xB3	; 179
    277a:	9a 4f       	sbci	r25, 0xFA	; 250
    277c:	fc 01       	movw	r30, r24
    277e:	80 81       	ld	r24, Z
    2780:	80 93 32 06 	sts	0x0632, r24
				whip_loc2 = level2[pos_y][pos_x-2];
    2784:	80 91 08 01 	lds	r24, 0x0108
    2788:	48 2f       	mov	r20, r24
    278a:	55 27       	eor	r21, r21
    278c:	47 fd       	sbrc	r20, 7
    278e:	50 95       	com	r21
    2790:	80 91 07 01 	lds	r24, 0x0107
    2794:	99 27       	eor	r25, r25
    2796:	87 fd       	sbrc	r24, 7
    2798:	90 95       	com	r25
    279a:	02 97       	sbiw	r24, 0x02	; 2
    279c:	64 e1       	ldi	r22, 0x14	; 20
    279e:	64 9f       	mul	r22, r20
    27a0:	90 01       	movw	r18, r0
    27a2:	65 9f       	mul	r22, r21
    27a4:	30 0d       	add	r19, r0
    27a6:	11 24       	eor	r1, r1
    27a8:	82 0f       	add	r24, r18
    27aa:	93 1f       	adc	r25, r19
    27ac:	83 5b       	subi	r24, 0xB3	; 179
    27ae:	9a 4f       	sbci	r25, 0xFA	; 250
    27b0:	fc 01       	movw	r30, r24
    27b2:	80 81       	ld	r24, Z
    27b4:	80 93 33 06 	sts	0x0633, r24
    27b8:	38 c0       	rjmp	.+112    	; 0x282a <whip+0x818>
			}
			else
			{
				//standing so shoot from head
				whip_loc = level2[pos_y-1][pos_x-1];
    27ba:	80 91 08 01 	lds	r24, 0x0108
    27be:	99 27       	eor	r25, r25
    27c0:	87 fd       	sbrc	r24, 7
    27c2:	90 95       	com	r25
    27c4:	ac 01       	movw	r20, r24
    27c6:	41 50       	subi	r20, 0x01	; 1
    27c8:	51 09       	sbc	r21, r1
    27ca:	80 91 07 01 	lds	r24, 0x0107
    27ce:	99 27       	eor	r25, r25
    27d0:	87 fd       	sbrc	r24, 7
    27d2:	90 95       	com	r25
    27d4:	01 97       	sbiw	r24, 0x01	; 1
    27d6:	64 e1       	ldi	r22, 0x14	; 20
    27d8:	64 9f       	mul	r22, r20
    27da:	90 01       	movw	r18, r0
    27dc:	65 9f       	mul	r22, r21
    27de:	30 0d       	add	r19, r0
    27e0:	11 24       	eor	r1, r1
    27e2:	82 0f       	add	r24, r18
    27e4:	93 1f       	adc	r25, r19
    27e6:	83 5b       	subi	r24, 0xB3	; 179
    27e8:	9a 4f       	sbci	r25, 0xFA	; 250
    27ea:	fc 01       	movw	r30, r24
    27ec:	80 81       	ld	r24, Z
    27ee:	80 93 32 06 	sts	0x0632, r24
				whip_loc2 = level2[pos_y-1][pos_x-2];
    27f2:	80 91 08 01 	lds	r24, 0x0108
    27f6:	99 27       	eor	r25, r25
    27f8:	87 fd       	sbrc	r24, 7
    27fa:	90 95       	com	r25
    27fc:	ac 01       	movw	r20, r24
    27fe:	41 50       	subi	r20, 0x01	; 1
    2800:	51 09       	sbc	r21, r1
    2802:	80 91 07 01 	lds	r24, 0x0107
    2806:	99 27       	eor	r25, r25
    2808:	87 fd       	sbrc	r24, 7
    280a:	90 95       	com	r25
    280c:	02 97       	sbiw	r24, 0x02	; 2
    280e:	64 e1       	ldi	r22, 0x14	; 20
    2810:	64 9f       	mul	r22, r20
    2812:	90 01       	movw	r18, r0
    2814:	65 9f       	mul	r22, r21
    2816:	30 0d       	add	r19, r0
    2818:	11 24       	eor	r1, r1
    281a:	82 0f       	add	r24, r18
    281c:	93 1f       	adc	r25, r19
    281e:	83 5b       	subi	r24, 0xB3	; 179
    2820:	9a 4f       	sbci	r25, 0xFA	; 250
    2822:	fc 01       	movw	r30, r24
    2824:	80 81       	ld	r24, Z
    2826:	80 93 33 06 	sts	0x0633, r24
			}
			
			if((in_air || crouched) && whip_loc != TILE && whip_loc != EXIT_COLOR)
    282a:	80 91 29 06 	lds	r24, 0x0629
    282e:	88 23       	and	r24, r24
    2830:	29 f4       	brne	.+10     	; 0x283c <whip+0x82a>
    2832:	80 91 2c 06 	lds	r24, 0x062C
    2836:	88 23       	and	r24, r24
    2838:	09 f4       	brne	.+2      	; 0x283c <whip+0x82a>
    283a:	43 c0       	rjmp	.+134    	; 0x28c2 <whip+0x8b0>
    283c:	80 91 32 06 	lds	r24, 0x0632
    2840:	86 30       	cpi	r24, 0x06	; 6
    2842:	09 f4       	brne	.+2      	; 0x2846 <whip+0x834>
    2844:	3e c0       	rjmp	.+124    	; 0x28c2 <whip+0x8b0>
    2846:	80 91 32 06 	lds	r24, 0x0632
    284a:	85 30       	cpi	r24, 0x05	; 5
    284c:	d1 f1       	breq	.+116    	; 0x28c2 <whip+0x8b0>
			{
				level2[pos_y][pos_x-1] = WHIP;
    284e:	80 91 08 01 	lds	r24, 0x0108
    2852:	48 2f       	mov	r20, r24
    2854:	55 27       	eor	r21, r21
    2856:	47 fd       	sbrc	r20, 7
    2858:	50 95       	com	r21
    285a:	80 91 07 01 	lds	r24, 0x0107
    285e:	99 27       	eor	r25, r25
    2860:	87 fd       	sbrc	r24, 7
    2862:	90 95       	com	r25
    2864:	01 97       	sbiw	r24, 0x01	; 1
    2866:	64 e1       	ldi	r22, 0x14	; 20
    2868:	64 9f       	mul	r22, r20
    286a:	90 01       	movw	r18, r0
    286c:	65 9f       	mul	r22, r21
    286e:	30 0d       	add	r19, r0
    2870:	11 24       	eor	r1, r1
    2872:	82 0f       	add	r24, r18
    2874:	93 1f       	adc	r25, r19
    2876:	83 5b       	subi	r24, 0xB3	; 179
    2878:	9a 4f       	sbci	r25, 0xFA	; 250
    287a:	2a e0       	ldi	r18, 0x0A	; 10
    287c:	fc 01       	movw	r30, r24
    287e:	20 83       	st	Z, r18
				if(whip_loc2 != TILE && whip_loc2 != EXIT_COLOR)
    2880:	80 91 33 06 	lds	r24, 0x0633
    2884:	86 30       	cpi	r24, 0x06	; 6
    2886:	e9 f0       	breq	.+58     	; 0x28c2 <whip+0x8b0>
    2888:	80 91 33 06 	lds	r24, 0x0633
    288c:	85 30       	cpi	r24, 0x05	; 5
    288e:	c9 f0       	breq	.+50     	; 0x28c2 <whip+0x8b0>
				{
					level2[pos_y][pos_x-2] = WHIP;
    2890:	80 91 08 01 	lds	r24, 0x0108
    2894:	48 2f       	mov	r20, r24
    2896:	55 27       	eor	r21, r21
    2898:	47 fd       	sbrc	r20, 7
    289a:	50 95       	com	r21
    289c:	80 91 07 01 	lds	r24, 0x0107
    28a0:	99 27       	eor	r25, r25
    28a2:	87 fd       	sbrc	r24, 7
    28a4:	90 95       	com	r25
    28a6:	02 97       	sbiw	r24, 0x02	; 2
    28a8:	64 e1       	ldi	r22, 0x14	; 20
    28aa:	64 9f       	mul	r22, r20
    28ac:	90 01       	movw	r18, r0
    28ae:	65 9f       	mul	r22, r21
    28b0:	30 0d       	add	r19, r0
    28b2:	11 24       	eor	r1, r1
    28b4:	82 0f       	add	r24, r18
    28b6:	93 1f       	adc	r25, r19
    28b8:	83 5b       	subi	r24, 0xB3	; 179
    28ba:	9a 4f       	sbci	r25, 0xFA	; 250
    28bc:	2a e0       	ldi	r18, 0x0A	; 10
    28be:	fc 01       	movw	r30, r24
    28c0:	20 83       	st	Z, r18
				}
			}
			//when standing
			if((!in_air && !crouched) && whip_loc != TILE && whip_loc != EXIT_COLOR)
    28c2:	80 91 29 06 	lds	r24, 0x0629
    28c6:	88 23       	and	r24, r24
    28c8:	09 f0       	breq	.+2      	; 0x28cc <whip+0x8ba>
    28ca:	4d c0       	rjmp	.+154    	; 0x2966 <whip+0x954>
    28cc:	80 91 2c 06 	lds	r24, 0x062C
    28d0:	88 23       	and	r24, r24
    28d2:	09 f0       	breq	.+2      	; 0x28d6 <whip+0x8c4>
    28d4:	48 c0       	rjmp	.+144    	; 0x2966 <whip+0x954>
    28d6:	80 91 32 06 	lds	r24, 0x0632
    28da:	86 30       	cpi	r24, 0x06	; 6
    28dc:	09 f4       	brne	.+2      	; 0x28e0 <whip+0x8ce>
    28de:	43 c0       	rjmp	.+134    	; 0x2966 <whip+0x954>
    28e0:	80 91 32 06 	lds	r24, 0x0632
    28e4:	85 30       	cpi	r24, 0x05	; 5
    28e6:	09 f4       	brne	.+2      	; 0x28ea <whip+0x8d8>
    28e8:	3e c0       	rjmp	.+124    	; 0x2966 <whip+0x954>
			{
				level2[pos_y-1][pos_x-1] = WHIP;
    28ea:	80 91 08 01 	lds	r24, 0x0108
    28ee:	99 27       	eor	r25, r25
    28f0:	87 fd       	sbrc	r24, 7
    28f2:	90 95       	com	r25
    28f4:	ac 01       	movw	r20, r24
    28f6:	41 50       	subi	r20, 0x01	; 1
    28f8:	51 09       	sbc	r21, r1
    28fa:	80 91 07 01 	lds	r24, 0x0107
    28fe:	99 27       	eor	r25, r25
    2900:	87 fd       	sbrc	r24, 7
    2902:	90 95       	com	r25
    2904:	01 97       	sbiw	r24, 0x01	; 1
    2906:	64 e1       	ldi	r22, 0x14	; 20
    2908:	64 9f       	mul	r22, r20
    290a:	90 01       	movw	r18, r0
    290c:	65 9f       	mul	r22, r21
    290e:	30 0d       	add	r19, r0
    2910:	11 24       	eor	r1, r1
    2912:	82 0f       	add	r24, r18
    2914:	93 1f       	adc	r25, r19
    2916:	83 5b       	subi	r24, 0xB3	; 179
    2918:	9a 4f       	sbci	r25, 0xFA	; 250
    291a:	2a e0       	ldi	r18, 0x0A	; 10
    291c:	fc 01       	movw	r30, r24
    291e:	20 83       	st	Z, r18
				if(whip_loc2 != TILE && whip_loc2 != EXIT_COLOR)
    2920:	80 91 33 06 	lds	r24, 0x0633
    2924:	86 30       	cpi	r24, 0x06	; 6
    2926:	f9 f0       	breq	.+62     	; 0x2966 <whip+0x954>
    2928:	80 91 33 06 	lds	r24, 0x0633
    292c:	85 30       	cpi	r24, 0x05	; 5
    292e:	d9 f0       	breq	.+54     	; 0x2966 <whip+0x954>
				{
					level2[pos_y-1][pos_x-2] = WHIP;
    2930:	80 91 08 01 	lds	r24, 0x0108
    2934:	99 27       	eor	r25, r25
    2936:	87 fd       	sbrc	r24, 7
    2938:	90 95       	com	r25
    293a:	ac 01       	movw	r20, r24
    293c:	41 50       	subi	r20, 0x01	; 1
    293e:	51 09       	sbc	r21, r1
    2940:	80 91 07 01 	lds	r24, 0x0107
    2944:	99 27       	eor	r25, r25
    2946:	87 fd       	sbrc	r24, 7
    2948:	90 95       	com	r25
    294a:	02 97       	sbiw	r24, 0x02	; 2
    294c:	64 e1       	ldi	r22, 0x14	; 20
    294e:	64 9f       	mul	r22, r20
    2950:	90 01       	movw	r18, r0
    2952:	65 9f       	mul	r22, r21
    2954:	30 0d       	add	r19, r0
    2956:	11 24       	eor	r1, r1
    2958:	82 0f       	add	r24, r18
    295a:	93 1f       	adc	r25, r19
    295c:	83 5b       	subi	r24, 0xB3	; 179
    295e:	9a 4f       	sbci	r25, 0xFA	; 250
    2960:	2a e0       	ldi	r18, 0x0A	; 10
    2962:	fc 01       	movw	r30, r24
    2964:	20 83       	st	Z, r18
				}
			}
		}
	}

}
    2966:	df 91       	pop	r29
    2968:	cf 91       	pop	r28
    296a:	08 95       	ret

0000296c <retract_whip>:

//get rid of ANY whips on screen (does not matter direction
void retract_whip()
{
    296c:	cf 93       	push	r28
    296e:	df 93       	push	r29
    2970:	00 d0       	rcall	.+0      	; 0x2972 <retract_whip+0x6>
    2972:	cd b7       	in	r28, 0x3d	; 61
    2974:	de b7       	in	r29, 0x3e	; 62
	//whipped = 0;
	for(unsigned char y = 0; y < 8 ; y++)
    2976:	19 82       	std	Y+1, r1	; 0x01
    2978:	64 c0       	rjmp	.+200    	; 0x2a42 <retract_whip+0xd6>
	{
		for(unsigned char x = start_render; x < end_render; x++)
    297a:	80 91 31 06 	lds	r24, 0x0631
    297e:	8a 83       	std	Y+2, r24	; 0x02
    2980:	57 c0       	rjmp	.+174    	; 0x2a30 <retract_whip+0xc4>
		{
		    if(cur_level == 1)
    2982:	80 91 05 01 	lds	r24, 0x0105
    2986:	81 30       	cpi	r24, 0x01	; 1
    2988:	31 f5       	brne	.+76     	; 0x29d6 <retract_whip+0x6a>
			{
			  if(level1[y][x] == WHIP)
    298a:	89 81       	ldd	r24, Y+1	; 0x01
    298c:	48 2f       	mov	r20, r24
    298e:	50 e0       	ldi	r21, 0x00	; 0
    2990:	8a 81       	ldd	r24, Y+2	; 0x02
    2992:	88 2f       	mov	r24, r24
    2994:	90 e0       	ldi	r25, 0x00	; 0
    2996:	66 e8       	ldi	r22, 0x86	; 134
    2998:	64 9f       	mul	r22, r20
    299a:	90 01       	movw	r18, r0
    299c:	65 9f       	mul	r22, r21
    299e:	30 0d       	add	r19, r0
    29a0:	11 24       	eor	r1, r1
    29a2:	82 0f       	add	r24, r18
    29a4:	93 1f       	adc	r25, r19
    29a6:	83 5e       	subi	r24, 0xE3	; 227
    29a8:	9e 4f       	sbci	r25, 0xFE	; 254
    29aa:	fc 01       	movw	r30, r24
    29ac:	80 81       	ld	r24, Z
    29ae:	8a 30       	cpi	r24, 0x0A	; 10
    29b0:	91 f4       	brne	.+36     	; 0x29d6 <retract_whip+0x6a>
			  {
		        level1[y][x] = 0;
    29b2:	89 81       	ldd	r24, Y+1	; 0x01
    29b4:	48 2f       	mov	r20, r24
    29b6:	50 e0       	ldi	r21, 0x00	; 0
    29b8:	8a 81       	ldd	r24, Y+2	; 0x02
    29ba:	88 2f       	mov	r24, r24
    29bc:	90 e0       	ldi	r25, 0x00	; 0
    29be:	66 e8       	ldi	r22, 0x86	; 134
    29c0:	64 9f       	mul	r22, r20
    29c2:	90 01       	movw	r18, r0
    29c4:	65 9f       	mul	r22, r21
    29c6:	30 0d       	add	r19, r0
    29c8:	11 24       	eor	r1, r1
    29ca:	82 0f       	add	r24, r18
    29cc:	93 1f       	adc	r25, r19
    29ce:	83 5e       	subi	r24, 0xE3	; 227
    29d0:	9e 4f       	sbci	r25, 0xFE	; 254
    29d2:	fc 01       	movw	r30, r24
    29d4:	10 82       	st	Z, r1
			  }	
			}
			if(cur_level == 2)
    29d6:	80 91 05 01 	lds	r24, 0x0105
    29da:	82 30       	cpi	r24, 0x02	; 2
    29dc:	31 f5       	brne	.+76     	; 0x2a2a <retract_whip+0xbe>
			{
				if(level2[y][x] == WHIP)
    29de:	89 81       	ldd	r24, Y+1	; 0x01
    29e0:	48 2f       	mov	r20, r24
    29e2:	50 e0       	ldi	r21, 0x00	; 0
    29e4:	8a 81       	ldd	r24, Y+2	; 0x02
    29e6:	88 2f       	mov	r24, r24
    29e8:	90 e0       	ldi	r25, 0x00	; 0
    29ea:	64 e1       	ldi	r22, 0x14	; 20
    29ec:	64 9f       	mul	r22, r20
    29ee:	90 01       	movw	r18, r0
    29f0:	65 9f       	mul	r22, r21
    29f2:	30 0d       	add	r19, r0
    29f4:	11 24       	eor	r1, r1
    29f6:	82 0f       	add	r24, r18
    29f8:	93 1f       	adc	r25, r19
    29fa:	83 5b       	subi	r24, 0xB3	; 179
    29fc:	9a 4f       	sbci	r25, 0xFA	; 250
    29fe:	fc 01       	movw	r30, r24
    2a00:	80 81       	ld	r24, Z
    2a02:	8a 30       	cpi	r24, 0x0A	; 10
    2a04:	91 f4       	brne	.+36     	; 0x2a2a <retract_whip+0xbe>
				{
					level2[y][x] = 0;
    2a06:	89 81       	ldd	r24, Y+1	; 0x01
    2a08:	48 2f       	mov	r20, r24
    2a0a:	50 e0       	ldi	r21, 0x00	; 0
    2a0c:	8a 81       	ldd	r24, Y+2	; 0x02
    2a0e:	88 2f       	mov	r24, r24
    2a10:	90 e0       	ldi	r25, 0x00	; 0
    2a12:	64 e1       	ldi	r22, 0x14	; 20
    2a14:	64 9f       	mul	r22, r20
    2a16:	90 01       	movw	r18, r0
    2a18:	65 9f       	mul	r22, r21
    2a1a:	30 0d       	add	r19, r0
    2a1c:	11 24       	eor	r1, r1
    2a1e:	82 0f       	add	r24, r18
    2a20:	93 1f       	adc	r25, r19
    2a22:	83 5b       	subi	r24, 0xB3	; 179
    2a24:	9a 4f       	sbci	r25, 0xFA	; 250
    2a26:	fc 01       	movw	r30, r24
    2a28:	10 82       	st	Z, r1
void retract_whip()
{
	//whipped = 0;
	for(unsigned char y = 0; y < 8 ; y++)
	{
		for(unsigned char x = start_render; x < end_render; x++)
    2a2a:	8a 81       	ldd	r24, Y+2	; 0x02
    2a2c:	8f 5f       	subi	r24, 0xFF	; 255
    2a2e:	8a 83       	std	Y+2, r24	; 0x02
    2a30:	80 91 06 01 	lds	r24, 0x0106
    2a34:	9a 81       	ldd	r25, Y+2	; 0x02
    2a36:	98 17       	cp	r25, r24
    2a38:	08 f4       	brcc	.+2      	; 0x2a3c <retract_whip+0xd0>
    2a3a:	a3 cf       	rjmp	.-186    	; 0x2982 <retract_whip+0x16>

//get rid of ANY whips on screen (does not matter direction
void retract_whip()
{
	//whipped = 0;
	for(unsigned char y = 0; y < 8 ; y++)
    2a3c:	89 81       	ldd	r24, Y+1	; 0x01
    2a3e:	8f 5f       	subi	r24, 0xFF	; 255
    2a40:	89 83       	std	Y+1, r24	; 0x01
    2a42:	89 81       	ldd	r24, Y+1	; 0x01
    2a44:	88 30       	cpi	r24, 0x08	; 8
    2a46:	08 f4       	brcc	.+2      	; 0x2a4a <retract_whip+0xde>
    2a48:	98 cf       	rjmp	.-208    	; 0x297a <retract_whip+0xe>
				}
			}
		 
		}
	}
}
    2a4a:	0f 90       	pop	r0
    2a4c:	0f 90       	pop	r0
    2a4e:	df 91       	pop	r29
    2a50:	cf 91       	pop	r28
    2a52:	08 95       	ret

00002a54 <reset>:
void reset()
{
    2a54:	cf 93       	push	r28
    2a56:	df 93       	push	r29
    2a58:	cd b7       	in	r28, 0x3d	; 61
    2a5a:	de b7       	in	r29, 0x3e	; 62
			cur_level = 1;
    2a5c:	81 e0       	ldi	r24, 0x01	; 1
    2a5e:	80 93 05 01 	sts	0x0105, r24
			level_size_index = 0;
    2a62:	10 92 30 06 	sts	0x0630, r1
			calc_render_range(lvl_sizes[level_size_index]);
    2a66:	80 91 30 06 	lds	r24, 0x0630
    2a6a:	88 2f       	mov	r24, r24
    2a6c:	90 e0       	ldi	r25, 0x00	; 0
    2a6e:	83 51       	subi	r24, 0x13	; 19
    2a70:	9a 4f       	sbci	r25, 0xFA	; 250
    2a72:	fc 01       	movw	r30, r24
    2a74:	80 81       	ld	r24, Z
    2a76:	0e 94 2d 03 	call	0x65a	; 0x65a <calc_render_range>
			moving_right = 1;
    2a7a:	81 e0       	ldi	r24, 0x01	; 1
    2a7c:	80 93 2e 06 	sts	0x062E, r24
			crouched = 0;
    2a80:	10 92 2c 06 	sts	0x062C, r1
			in_air = 0;
    2a84:	10 92 29 06 	sts	0x0629, r1
			whipped = 0;
    2a88:	10 92 34 06 	sts	0x0634, r1
			pos_x = 2;
    2a8c:	82 e0       	ldi	r24, 0x02	; 2
    2a8e:	80 93 07 01 	sts	0x0107, r24
			pos_y = 6;
    2a92:	86 e0       	ldi	r24, 0x06	; 6
    2a94:	80 93 08 01 	sts	0x0108, r24
}
    2a98:	df 91       	pop	r29
    2a9a:	cf 91       	pop	r28
    2a9c:	08 95       	ret

00002a9e <next_level>:


void next_level()
{
    2a9e:	cf 93       	push	r28
    2aa0:	df 93       	push	r29
    2aa2:	cd b7       	in	r28, 0x3d	; 61
    2aa4:	de b7       	in	r29, 0x3e	; 62
	if(cur_level == 1) //go to level 2
    2aa6:	80 91 05 01 	lds	r24, 0x0105
    2aaa:	81 30       	cpi	r24, 0x01	; 1
    2aac:	69 f4       	brne	.+26     	; 0x2ac8 <next_level+0x2a>
	{
		cur_level = 2; 
    2aae:	82 e0       	ldi	r24, 0x02	; 2
    2ab0:	80 93 05 01 	sts	0x0105, r24
		//pos_x = 2; //set new position
		//pos_y = 6; //set new position y
				pos_x = 2;
    2ab4:	82 e0       	ldi	r24, 0x02	; 2
    2ab6:	80 93 07 01 	sts	0x0107, r24
				pos_y = 2;
    2aba:	82 e0       	ldi	r24, 0x02	; 2
    2abc:	80 93 08 01 	sts	0x0108, r24
		level_size_index = 1;//move to next level
    2ac0:	81 e0       	ldi	r24, 0x01	; 1
    2ac2:	80 93 30 06 	sts	0x0630, r24
    2ac6:	0f c0       	rjmp	.+30     	; 0x2ae6 <next_level+0x48>
	}
	else if(cur_level == 2)//go to lvl 3 top
    2ac8:	80 91 05 01 	lds	r24, 0x0105
    2acc:	82 30       	cpi	r24, 0x02	; 2
    2ace:	59 f4       	brne	.+22     	; 0x2ae6 <next_level+0x48>
	{
		//cur_level++;
		cur_level = 1;
    2ad0:	81 e0       	ldi	r24, 0x01	; 1
    2ad2:	80 93 05 01 	sts	0x0105, r24
		pos_x = 109;
    2ad6:	8d e6       	ldi	r24, 0x6D	; 109
    2ad8:	80 93 07 01 	sts	0x0107, r24
		pos_y = 6; 
    2adc:	86 e0       	ldi	r24, 0x06	; 6
    2ade:	80 93 08 01 	sts	0x0108, r24
		//pos_x = 1;
		//pos_y = 2;
		level_size_index = 0;
    2ae2:	10 92 30 06 	sts	0x0630, r1
	}
    2ae6:	df 91       	pop	r29
    2ae8:	cf 91       	pop	r28
    2aea:	08 95       	ret

00002aec <getControllerData>:
12	R [11]
13-16	none (always high)
*/
unsigned char buttons[16];
void getControllerData()
{
    2aec:	cf 93       	push	r28
    2aee:	df 93       	push	r29
    2af0:	00 d0       	rcall	.+0      	; 0x2af2 <getControllerData+0x6>
    2af2:	1f 92       	push	r1
    2af4:	cd b7       	in	r28, 0x3d	; 61
    2af6:	de b7       	in	r29, 0x3e	; 62
	unsigned char cCopy;     //Copy of the current input via controller
	int i = 0;               //Index
    2af8:	1a 82       	std	Y+2, r1	; 0x02
    2afa:	19 82       	std	Y+1, r1	; 0x01
	PORTC = 0x03;            //Setting the clock and the latch to high. Sets value of buttons to Shift Register
    2afc:	88 e2       	ldi	r24, 0x28	; 40
    2afe:	90 e0       	ldi	r25, 0x00	; 0
    2b00:	23 e0       	ldi	r18, 0x03	; 3
    2b02:	fc 01       	movw	r30, r24
    2b04:	20 83       	st	Z, r18
	for(i = 0; i < 16; i++)  //For loop gathering data
    2b06:	1a 82       	std	Y+2, r1	; 0x02
    2b08:	19 82       	std	Y+1, r1	; 0x01
    2b0a:	23 c0       	rjmp	.+70     	; 0x2b52 <getControllerData+0x66>
	{
		PORTC = 0x01;                     //Setting clock to high in order to shift data over one spot.
    2b0c:	88 e2       	ldi	r24, 0x28	; 40
    2b0e:	90 e0       	ldi	r25, 0x00	; 0
    2b10:	21 e0       	ldi	r18, 0x01	; 1
    2b12:	fc 01       	movw	r30, r24
    2b14:	20 83       	st	Z, r18
		cCopy = ((~PINC) >> 2) & 0x01;    //Buttons have pull-up resistors, so logical NOT values and takes data from PINC 2
    2b16:	86 e2       	ldi	r24, 0x26	; 38
    2b18:	90 e0       	ldi	r25, 0x00	; 0
    2b1a:	fc 01       	movw	r30, r24
    2b1c:	80 81       	ld	r24, Z
    2b1e:	88 2f       	mov	r24, r24
    2b20:	90 e0       	ldi	r25, 0x00	; 0
    2b22:	80 95       	com	r24
    2b24:	90 95       	com	r25
    2b26:	95 95       	asr	r25
    2b28:	87 95       	ror	r24
    2b2a:	95 95       	asr	r25
    2b2c:	87 95       	ror	r24
    2b2e:	81 70       	andi	r24, 0x01	; 1
    2b30:	8b 83       	std	Y+3, r24	; 0x03
		buttons[i] = cCopy;             //Saving values to global vector
    2b32:	89 81       	ldd	r24, Y+1	; 0x01
    2b34:	9a 81       	ldd	r25, Y+2	; 0x02
    2b36:	8c 53       	subi	r24, 0x3C	; 60
    2b38:	99 4f       	sbci	r25, 0xF9	; 249
    2b3a:	2b 81       	ldd	r18, Y+3	; 0x03
    2b3c:	fc 01       	movw	r30, r24
    2b3e:	20 83       	st	Z, r18
		//Saving values to global vector
		PORTC = 0x00;                     //Setting everything to low so that rising edge can trigger shift
    2b40:	88 e2       	ldi	r24, 0x28	; 40
    2b42:	90 e0       	ldi	r25, 0x00	; 0
    2b44:	fc 01       	movw	r30, r24
    2b46:	10 82       	st	Z, r1
void getControllerData()
{
	unsigned char cCopy;     //Copy of the current input via controller
	int i = 0;               //Index
	PORTC = 0x03;            //Setting the clock and the latch to high. Sets value of buttons to Shift Register
	for(i = 0; i < 16; i++)  //For loop gathering data
    2b48:	89 81       	ldd	r24, Y+1	; 0x01
    2b4a:	9a 81       	ldd	r25, Y+2	; 0x02
    2b4c:	01 96       	adiw	r24, 0x01	; 1
    2b4e:	9a 83       	std	Y+2, r25	; 0x02
    2b50:	89 83       	std	Y+1, r24	; 0x01
    2b52:	89 81       	ldd	r24, Y+1	; 0x01
    2b54:	9a 81       	ldd	r25, Y+2	; 0x02
    2b56:	80 31       	cpi	r24, 0x10	; 16
    2b58:	91 05       	cpc	r25, r1
    2b5a:	c4 f2       	brlt	.-80     	; 0x2b0c <getControllerData+0x20>
		cCopy = ((~PINC) >> 2) & 0x01;    //Buttons have pull-up resistors, so logical NOT values and takes data from PINC 2
		buttons[i] = cCopy;             //Saving values to global vector
		//Saving values to global vector
		PORTC = 0x00;                     //Setting everything to low so that rising edge can trigger shift
	}
	PORTC = 0x01;                         //Setting clock to high when not in use
    2b5c:	88 e2       	ldi	r24, 0x28	; 40
    2b5e:	90 e0       	ldi	r25, 0x00	; 0
    2b60:	21 e0       	ldi	r18, 0x01	; 1
    2b62:	fc 01       	movw	r30, r24
    2b64:	20 83       	st	Z, r18

};
    2b66:	0f 90       	pop	r0
    2b68:	0f 90       	pop	r0
    2b6a:	0f 90       	pop	r0
    2b6c:	df 91       	pop	r29
    2b6e:	cf 91       	pop	r28
    2b70:	08 95       	ret

00002b72 <findGCD>:


//--------Find GCD function --------------------------------------------------
unsigned long int findGCD(unsigned long int a, unsigned long int b)
{
    2b72:	cf 93       	push	r28
    2b74:	df 93       	push	r29
    2b76:	cd b7       	in	r28, 0x3d	; 61
    2b78:	de b7       	in	r29, 0x3e	; 62
    2b7a:	2c 97       	sbiw	r28, 0x0c	; 12
    2b7c:	0f b6       	in	r0, 0x3f	; 63
    2b7e:	f8 94       	cli
    2b80:	de bf       	out	0x3e, r29	; 62
    2b82:	0f be       	out	0x3f, r0	; 63
    2b84:	cd bf       	out	0x3d, r28	; 61
    2b86:	6d 83       	std	Y+5, r22	; 0x05
    2b88:	7e 83       	std	Y+6, r23	; 0x06
    2b8a:	8f 83       	std	Y+7, r24	; 0x07
    2b8c:	98 87       	std	Y+8, r25	; 0x08
    2b8e:	29 87       	std	Y+9, r18	; 0x09
    2b90:	3a 87       	std	Y+10, r19	; 0x0a
    2b92:	4b 87       	std	Y+11, r20	; 0x0b
    2b94:	5c 87       	std	Y+12, r21	; 0x0c
	unsigned long int c;
	while(1){
		c = a%b;
    2b96:	8d 81       	ldd	r24, Y+5	; 0x05
    2b98:	9e 81       	ldd	r25, Y+6	; 0x06
    2b9a:	af 81       	ldd	r26, Y+7	; 0x07
    2b9c:	b8 85       	ldd	r27, Y+8	; 0x08
    2b9e:	29 85       	ldd	r18, Y+9	; 0x09
    2ba0:	3a 85       	ldd	r19, Y+10	; 0x0a
    2ba2:	4b 85       	ldd	r20, Y+11	; 0x0b
    2ba4:	5c 85       	ldd	r21, Y+12	; 0x0c
    2ba6:	bc 01       	movw	r22, r24
    2ba8:	cd 01       	movw	r24, r26
    2baa:	3a d6       	rcall	.+3188   	; 0x3820 <__udivmodsi4>
    2bac:	dc 01       	movw	r26, r24
    2bae:	cb 01       	movw	r24, r22
    2bb0:	89 83       	std	Y+1, r24	; 0x01
    2bb2:	9a 83       	std	Y+2, r25	; 0x02
    2bb4:	ab 83       	std	Y+3, r26	; 0x03
    2bb6:	bc 83       	std	Y+4, r27	; 0x04
		if(c==0){return b;}
    2bb8:	89 81       	ldd	r24, Y+1	; 0x01
    2bba:	9a 81       	ldd	r25, Y+2	; 0x02
    2bbc:	ab 81       	ldd	r26, Y+3	; 0x03
    2bbe:	bc 81       	ldd	r27, Y+4	; 0x04
    2bc0:	00 97       	sbiw	r24, 0x00	; 0
    2bc2:	a1 05       	cpc	r26, r1
    2bc4:	b1 05       	cpc	r27, r1
    2bc6:	29 f4       	brne	.+10     	; 0x2bd2 <findGCD+0x60>
    2bc8:	89 85       	ldd	r24, Y+9	; 0x09
    2bca:	9a 85       	ldd	r25, Y+10	; 0x0a
    2bcc:	ab 85       	ldd	r26, Y+11	; 0x0b
    2bce:	bc 85       	ldd	r27, Y+12	; 0x0c
    2bd0:	11 c0       	rjmp	.+34     	; 0x2bf4 <findGCD+0x82>
		a = b;
    2bd2:	89 85       	ldd	r24, Y+9	; 0x09
    2bd4:	9a 85       	ldd	r25, Y+10	; 0x0a
    2bd6:	ab 85       	ldd	r26, Y+11	; 0x0b
    2bd8:	bc 85       	ldd	r27, Y+12	; 0x0c
    2bda:	8d 83       	std	Y+5, r24	; 0x05
    2bdc:	9e 83       	std	Y+6, r25	; 0x06
    2bde:	af 83       	std	Y+7, r26	; 0x07
    2be0:	b8 87       	std	Y+8, r27	; 0x08
		b = c;
    2be2:	89 81       	ldd	r24, Y+1	; 0x01
    2be4:	9a 81       	ldd	r25, Y+2	; 0x02
    2be6:	ab 81       	ldd	r26, Y+3	; 0x03
    2be8:	bc 81       	ldd	r27, Y+4	; 0x04
    2bea:	89 87       	std	Y+9, r24	; 0x09
    2bec:	9a 87       	std	Y+10, r25	; 0x0a
    2bee:	ab 87       	std	Y+11, r26	; 0x0b
    2bf0:	bc 87       	std	Y+12, r27	; 0x0c
	}
    2bf2:	d1 cf       	rjmp	.-94     	; 0x2b96 <findGCD+0x24>
	return 0;
}
    2bf4:	bc 01       	movw	r22, r24
    2bf6:	cd 01       	movw	r24, r26
    2bf8:	2c 96       	adiw	r28, 0x0c	; 12
    2bfa:	0f b6       	in	r0, 0x3f	; 63
    2bfc:	f8 94       	cli
    2bfe:	de bf       	out	0x3e, r29	; 62
    2c00:	0f be       	out	0x3f, r0	; 63
    2c02:	cd bf       	out	0x3d, r28	; 61
    2c04:	df 91       	pop	r29
    2c06:	cf 91       	pop	r28
    2c08:	08 95       	ret

00002c0a <transmit_dataA>:
//--------End find GCD function ----------------------------------------------

void transmit_dataA(unsigned char data) {
    2c0a:	cf 93       	push	r28
    2c0c:	df 93       	push	r29
    2c0e:	00 d0       	rcall	.+0      	; 0x2c10 <transmit_dataA+0x6>
    2c10:	1f 92       	push	r1
    2c12:	cd b7       	in	r28, 0x3d	; 61
    2c14:	de b7       	in	r29, 0x3e	; 62
    2c16:	8b 83       	std	Y+3, r24	; 0x03
	int i;
	for (i = 0; i < 8 ; ++i) {
    2c18:	1a 82       	std	Y+2, r1	; 0x02
    2c1a:	19 82       	std	Y+1, r1	; 0x01
    2c1c:	27 c0       	rjmp	.+78     	; 0x2c6c <transmit_dataA+0x62>
		// Sets SRCLR to 1 allowing data to be set
		// Also clears SRCLK in preparation of sending data
		PORTA = 0x08;
    2c1e:	82 e2       	ldi	r24, 0x22	; 34
    2c20:	90 e0       	ldi	r25, 0x00	; 0
    2c22:	28 e0       	ldi	r18, 0x08	; 8
    2c24:	fc 01       	movw	r30, r24
    2c26:	20 83       	st	Z, r18
		// set SER = next bit of data to be sent.
		PORTA |= ((data >> i) & 0x01);
    2c28:	82 e2       	ldi	r24, 0x22	; 34
    2c2a:	90 e0       	ldi	r25, 0x00	; 0
    2c2c:	22 e2       	ldi	r18, 0x22	; 34
    2c2e:	30 e0       	ldi	r19, 0x00	; 0
    2c30:	f9 01       	movw	r30, r18
    2c32:	20 81       	ld	r18, Z
    2c34:	42 2f       	mov	r20, r18
    2c36:	2b 81       	ldd	r18, Y+3	; 0x03
    2c38:	22 2f       	mov	r18, r18
    2c3a:	30 e0       	ldi	r19, 0x00	; 0
    2c3c:	09 80       	ldd	r0, Y+1	; 0x01
    2c3e:	02 c0       	rjmp	.+4      	; 0x2c44 <transmit_dataA+0x3a>
    2c40:	35 95       	asr	r19
    2c42:	27 95       	ror	r18
    2c44:	0a 94       	dec	r0
    2c46:	e2 f7       	brpl	.-8      	; 0x2c40 <transmit_dataA+0x36>
    2c48:	21 70       	andi	r18, 0x01	; 1
    2c4a:	24 2b       	or	r18, r20
    2c4c:	fc 01       	movw	r30, r24
    2c4e:	20 83       	st	Z, r18
		// set SRCLK = 1. Rising edge shifts next bit of data into the shift register
		PORTA |= 0x02;
    2c50:	82 e2       	ldi	r24, 0x22	; 34
    2c52:	90 e0       	ldi	r25, 0x00	; 0
    2c54:	22 e2       	ldi	r18, 0x22	; 34
    2c56:	30 e0       	ldi	r19, 0x00	; 0
    2c58:	f9 01       	movw	r30, r18
    2c5a:	20 81       	ld	r18, Z
    2c5c:	22 60       	ori	r18, 0x02	; 2
    2c5e:	fc 01       	movw	r30, r24
    2c60:	20 83       	st	Z, r18
}
//--------End find GCD function ----------------------------------------------

void transmit_dataA(unsigned char data) {
	int i;
	for (i = 0; i < 8 ; ++i) {
    2c62:	89 81       	ldd	r24, Y+1	; 0x01
    2c64:	9a 81       	ldd	r25, Y+2	; 0x02
    2c66:	01 96       	adiw	r24, 0x01	; 1
    2c68:	9a 83       	std	Y+2, r25	; 0x02
    2c6a:	89 83       	std	Y+1, r24	; 0x01
    2c6c:	89 81       	ldd	r24, Y+1	; 0x01
    2c6e:	9a 81       	ldd	r25, Y+2	; 0x02
    2c70:	88 30       	cpi	r24, 0x08	; 8
    2c72:	91 05       	cpc	r25, r1
    2c74:	a4 f2       	brlt	.-88     	; 0x2c1e <transmit_dataA+0x14>
		PORTA |= ((data >> i) & 0x01);
		// set SRCLK = 1. Rising edge shifts next bit of data into the shift register
		PORTA |= 0x02;
	}
	// set RCLK = 1. Rising edge copies data from Shift register to Storage register
	PORTA |= 0x04;
    2c76:	82 e2       	ldi	r24, 0x22	; 34
    2c78:	90 e0       	ldi	r25, 0x00	; 0
    2c7a:	22 e2       	ldi	r18, 0x22	; 34
    2c7c:	30 e0       	ldi	r19, 0x00	; 0
    2c7e:	f9 01       	movw	r30, r18
    2c80:	20 81       	ld	r18, Z
    2c82:	24 60       	ori	r18, 0x04	; 4
    2c84:	fc 01       	movw	r30, r24
    2c86:	20 83       	st	Z, r18
	// clears all lines in preparation of a new transmission
	PORTA = 0x00;
    2c88:	82 e2       	ldi	r24, 0x22	; 34
    2c8a:	90 e0       	ldi	r25, 0x00	; 0
    2c8c:	fc 01       	movw	r30, r24
    2c8e:	10 82       	st	Z, r1
}
    2c90:	0f 90       	pop	r0
    2c92:	0f 90       	pop	r0
    2c94:	0f 90       	pop	r0
    2c96:	df 91       	pop	r29
    2c98:	cf 91       	pop	r28
    2c9a:	08 95       	ret

00002c9c <transmit_dataB>:

void transmit_dataB(unsigned long data) {
    2c9c:	cf 93       	push	r28
    2c9e:	df 93       	push	r29
    2ca0:	00 d0       	rcall	.+0      	; 0x2ca2 <transmit_dataB+0x6>
    2ca2:	00 d0       	rcall	.+0      	; 0x2ca4 <transmit_dataB+0x8>
    2ca4:	00 d0       	rcall	.+0      	; 0x2ca6 <transmit_dataB+0xa>
    2ca6:	cd b7       	in	r28, 0x3d	; 61
    2ca8:	de b7       	in	r29, 0x3e	; 62
    2caa:	6b 83       	std	Y+3, r22	; 0x03
    2cac:	7c 83       	std	Y+4, r23	; 0x04
    2cae:	8d 83       	std	Y+5, r24	; 0x05
    2cb0:	9e 83       	std	Y+6, r25	; 0x06
	int i;
	for (i = 0; i < 24 ; ++i) {
    2cb2:	1a 82       	std	Y+2, r1	; 0x02
    2cb4:	19 82       	std	Y+1, r1	; 0x01
    2cb6:	29 c0       	rjmp	.+82     	; 0x2d0a <transmit_dataB+0x6e>
		// Sets SRCLR to 1 allowing data to be set
		// Also clears SRCLK in preparation of sending data
		PORTB = 0x08;
    2cb8:	85 e2       	ldi	r24, 0x25	; 37
    2cba:	90 e0       	ldi	r25, 0x00	; 0
    2cbc:	28 e0       	ldi	r18, 0x08	; 8
    2cbe:	fc 01       	movw	r30, r24
    2cc0:	20 83       	st	Z, r18
		// set SER = next bit of data to be sent.
		PORTB |= ((data >> i) & 0x01);
    2cc2:	25 e2       	ldi	r18, 0x25	; 37
    2cc4:	30 e0       	ldi	r19, 0x00	; 0
    2cc6:	85 e2       	ldi	r24, 0x25	; 37
    2cc8:	90 e0       	ldi	r25, 0x00	; 0
    2cca:	fc 01       	movw	r30, r24
    2ccc:	40 81       	ld	r20, Z
    2cce:	8b 81       	ldd	r24, Y+3	; 0x03
    2cd0:	9c 81       	ldd	r25, Y+4	; 0x04
    2cd2:	ad 81       	ldd	r26, Y+5	; 0x05
    2cd4:	be 81       	ldd	r27, Y+6	; 0x06
    2cd6:	09 80       	ldd	r0, Y+1	; 0x01
    2cd8:	04 c0       	rjmp	.+8      	; 0x2ce2 <transmit_dataB+0x46>
    2cda:	b6 95       	lsr	r27
    2cdc:	a7 95       	ror	r26
    2cde:	97 95       	ror	r25
    2ce0:	87 95       	ror	r24
    2ce2:	0a 94       	dec	r0
    2ce4:	d2 f7       	brpl	.-12     	; 0x2cda <transmit_dataB+0x3e>
    2ce6:	81 70       	andi	r24, 0x01	; 1
    2ce8:	84 2b       	or	r24, r20
    2cea:	f9 01       	movw	r30, r18
    2cec:	80 83       	st	Z, r24
		// set SRCLK = 1. Rising edge shifts next bit of data into the shift register
		PORTB |= 0x02;
    2cee:	85 e2       	ldi	r24, 0x25	; 37
    2cf0:	90 e0       	ldi	r25, 0x00	; 0
    2cf2:	25 e2       	ldi	r18, 0x25	; 37
    2cf4:	30 e0       	ldi	r19, 0x00	; 0
    2cf6:	f9 01       	movw	r30, r18
    2cf8:	20 81       	ld	r18, Z
    2cfa:	22 60       	ori	r18, 0x02	; 2
    2cfc:	fc 01       	movw	r30, r24
    2cfe:	20 83       	st	Z, r18
	PORTA = 0x00;
}

void transmit_dataB(unsigned long data) {
	int i;
	for (i = 0; i < 24 ; ++i) {
    2d00:	89 81       	ldd	r24, Y+1	; 0x01
    2d02:	9a 81       	ldd	r25, Y+2	; 0x02
    2d04:	01 96       	adiw	r24, 0x01	; 1
    2d06:	9a 83       	std	Y+2, r25	; 0x02
    2d08:	89 83       	std	Y+1, r24	; 0x01
    2d0a:	89 81       	ldd	r24, Y+1	; 0x01
    2d0c:	9a 81       	ldd	r25, Y+2	; 0x02
    2d0e:	88 31       	cpi	r24, 0x18	; 24
    2d10:	91 05       	cpc	r25, r1
    2d12:	94 f2       	brlt	.-92     	; 0x2cb8 <transmit_dataB+0x1c>
		PORTB |= ((data >> i) & 0x01);
		// set SRCLK = 1. Rising edge shifts next bit of data into the shift register
		PORTB |= 0x02;
	}
	// set RCLK = 1. Rising edge copies data from Shift register to Storage register
	PORTB |= 0x04;
    2d14:	85 e2       	ldi	r24, 0x25	; 37
    2d16:	90 e0       	ldi	r25, 0x00	; 0
    2d18:	25 e2       	ldi	r18, 0x25	; 37
    2d1a:	30 e0       	ldi	r19, 0x00	; 0
    2d1c:	f9 01       	movw	r30, r18
    2d1e:	20 81       	ld	r18, Z
    2d20:	24 60       	ori	r18, 0x04	; 4
    2d22:	fc 01       	movw	r30, r24
    2d24:	20 83       	st	Z, r18
	// clears all lines in preparation of a new transmission
	PORTB = 0x00;
    2d26:	85 e2       	ldi	r24, 0x25	; 37
    2d28:	90 e0       	ldi	r25, 0x00	; 0
    2d2a:	fc 01       	movw	r30, r24
    2d2c:	10 82       	st	Z, r1
}
    2d2e:	26 96       	adiw	r28, 0x06	; 6
    2d30:	0f b6       	in	r0, 0x3f	; 63
    2d32:	f8 94       	cli
    2d34:	de bf       	out	0x3e, r29	; 62
    2d36:	0f be       	out	0x3f, r0	; 63
    2d38:	cd bf       	out	0x3d, r28	; 61
    2d3a:	df 91       	pop	r29
    2d3c:	cf 91       	pop	r28
    2d3e:	08 95       	ret

00002d40 <render_SM>:
unsigned char r = 0;
unsigned char g = 0;
unsigned char b = 0;
enum RED_states{red_display,green_display,blue_display};
int render_SM(int state)
{
    2d40:	cf 93       	push	r28
    2d42:	df 93       	push	r29
    2d44:	00 d0       	rcall	.+0      	; 0x2d46 <render_SM+0x6>
    2d46:	cd b7       	in	r28, 0x3d	; 61
    2d48:	de b7       	in	r29, 0x3e	; 62
    2d4a:	9a 83       	std	Y+2, r25	; 0x02
    2d4c:	89 83       	std	Y+1, r24	; 0x01
	calc_render_range(lvl_sizes[level_size_index]);
    2d4e:	80 91 30 06 	lds	r24, 0x0630
    2d52:	88 2f       	mov	r24, r24
    2d54:	90 e0       	ldi	r25, 0x00	; 0
    2d56:	83 51       	subi	r24, 0x13	; 19
    2d58:	9a 4f       	sbci	r25, 0xFA	; 250
    2d5a:	fc 01       	movw	r30, r24
    2d5c:	80 81       	ld	r24, Z
    2d5e:	0e 94 2d 03 	call	0x65a	; 0x65a <calc_render_range>
	switch(state)//transitions
    2d62:	89 81       	ldd	r24, Y+1	; 0x01
    2d64:	9a 81       	ldd	r25, Y+2	; 0x02
    2d66:	81 30       	cpi	r24, 0x01	; 1
    2d68:	91 05       	cpc	r25, r1
    2d6a:	51 f0       	breq	.+20     	; 0x2d80 <render_SM+0x40>
    2d6c:	82 30       	cpi	r24, 0x02	; 2
    2d6e:	91 05       	cpc	r25, r1
    2d70:	61 f0       	breq	.+24     	; 0x2d8a <render_SM+0x4a>
    2d72:	00 97       	sbiw	r24, 0x00	; 0
    2d74:	99 f4       	brne	.+38     	; 0x2d9c <render_SM+0x5c>
	{	
	case red_display: //red -> green
	state = green_display;
    2d76:	81 e0       	ldi	r24, 0x01	; 1
    2d78:	90 e0       	ldi	r25, 0x00	; 0
    2d7a:	9a 83       	std	Y+2, r25	; 0x02
    2d7c:	89 83       	std	Y+1, r24	; 0x01
	break;
    2d7e:	14 c0       	rjmp	.+40     	; 0x2da8 <render_SM+0x68>
	
	case green_display: //green -> blue
	state = blue_display;
    2d80:	82 e0       	ldi	r24, 0x02	; 2
    2d82:	90 e0       	ldi	r25, 0x00	; 0
    2d84:	9a 83       	std	Y+2, r25	; 0x02
    2d86:	89 83       	std	Y+1, r24	; 0x01
	break;
    2d88:	0f c0       	rjmp	.+30     	; 0x2da8 <render_SM+0x68>
	
	case blue_display: // blue -> red
	state = red_display;
    2d8a:	1a 82       	std	Y+2, r1	; 0x02
    2d8c:	19 82       	std	Y+1, r1	; 0x01
	if(has_moved)
    2d8e:	80 91 2a 06 	lds	r24, 0x062A
    2d92:	88 23       	and	r24, r24
    2d94:	41 f0       	breq	.+16     	; 0x2da6 <render_SM+0x66>
	{
	 calc_render();
    2d96:	0e 94 95 03 	call	0x72a	; 0x72a <calc_render>
	 //calc_renderRED();	
	}
	break;
    2d9a:	05 c0       	rjmp	.+10     	; 0x2da6 <render_SM+0x66>
	
	default: 
	state = red_display;
    2d9c:	1a 82       	std	Y+2, r1	; 0x02
    2d9e:	19 82       	std	Y+1, r1	; 0x01
	calc_render();
    2da0:	0e 94 95 03 	call	0x72a	; 0x72a <calc_render>
	//calc_renderRED();
	break;
    2da4:	01 c0       	rjmp	.+2      	; 0x2da8 <render_SM+0x68>
	if(has_moved)
	{
	 calc_render();
	 //calc_renderRED();	
	}
	break;
    2da6:	00 00       	nop
	calc_render();
	//calc_renderRED();
	break;
	}
	
	switch(state)//actions
    2da8:	89 81       	ldd	r24, Y+1	; 0x01
    2daa:	9a 81       	ldd	r25, Y+2	; 0x02
    2dac:	81 30       	cpi	r24, 0x01	; 1
    2dae:	91 05       	cpc	r25, r1
    2db0:	79 f1       	breq	.+94     	; 0x2e10 <render_SM+0xd0>
    2db2:	82 30       	cpi	r24, 0x02	; 2
    2db4:	91 05       	cpc	r25, r1
    2db6:	09 f4       	brne	.+2      	; 0x2dba <render_SM+0x7a>
    2db8:	53 c0       	rjmp	.+166    	; 0x2e60 <render_SM+0x120>
    2dba:	00 97       	sbiw	r24, 0x00	; 0
    2dbc:	09 f0       	breq	.+2      	; 0x2dc0 <render_SM+0x80>
    2dbe:	78 c0       	rjmp	.+240    	; 0x2eb0 <render_SM+0x170>
	{
		case red_display:
		if(r > 7)
    2dc0:	80 91 95 06 	lds	r24, 0x0695
    2dc4:	88 30       	cpi	r24, 0x08	; 8
    2dc6:	18 f0       	brcs	.+6      	; 0x2dce <render_SM+0x8e>
		{
			r = 0;
    2dc8:	10 92 95 06 	sts	0x0695, r1
			transmit_dataA(active_row[r]);//{0x80,0x40,0x20,0x10,0x08,0x04,0x02,0x01};//goes from top to bottom
			transmit_dataB(active_red[r]);//column values red
			r++;
			
		}
		break;
    2dcc:	72 c0       	rjmp	.+228    	; 0x2eb2 <render_SM+0x172>
			r = 0;
		}
		else
		{
			//transmit_dataB(active_red[r]);
			transmit_dataA(active_row[r]);//{0x80,0x40,0x20,0x10,0x08,0x04,0x02,0x01};//goes from top to bottom
    2dce:	80 91 95 06 	lds	r24, 0x0695
    2dd2:	88 2f       	mov	r24, r24
    2dd4:	90 e0       	ldi	r25, 0x00	; 0
    2dd6:	8b 5e       	subi	r24, 0xEB	; 235
    2dd8:	9e 4f       	sbci	r25, 0xFE	; 254
    2dda:	fc 01       	movw	r30, r24
    2ddc:	80 81       	ld	r24, Z
    2dde:	15 df       	rcall	.-470    	; 0x2c0a <transmit_dataA>
			transmit_dataB(active_red[r]);//column values red
    2de0:	80 91 95 06 	lds	r24, 0x0695
    2de4:	88 2f       	mov	r24, r24
    2de6:	90 e0       	ldi	r25, 0x00	; 0
    2de8:	88 0f       	add	r24, r24
    2dea:	99 1f       	adc	r25, r25
    2dec:	88 0f       	add	r24, r24
    2dee:	99 1f       	adc	r25, r25
    2df0:	8b 58       	subi	r24, 0x8B	; 139
    2df2:	99 4f       	sbci	r25, 0xF9	; 249
    2df4:	fc 01       	movw	r30, r24
    2df6:	80 81       	ld	r24, Z
    2df8:	91 81       	ldd	r25, Z+1	; 0x01
    2dfa:	a2 81       	ldd	r26, Z+2	; 0x02
    2dfc:	b3 81       	ldd	r27, Z+3	; 0x03
    2dfe:	bc 01       	movw	r22, r24
    2e00:	cd 01       	movw	r24, r26
    2e02:	4c df       	rcall	.-360    	; 0x2c9c <transmit_dataB>
			r++;
    2e04:	80 91 95 06 	lds	r24, 0x0695
    2e08:	8f 5f       	subi	r24, 0xFF	; 255
    2e0a:	80 93 95 06 	sts	0x0695, r24
			
		}
		break;
    2e0e:	51 c0       	rjmp	.+162    	; 0x2eb2 <render_SM+0x172>
		
		case green_display:
		if(g > 7)
    2e10:	80 91 96 06 	lds	r24, 0x0696
    2e14:	88 30       	cpi	r24, 0x08	; 8
    2e16:	18 f0       	brcs	.+6      	; 0x2e1e <render_SM+0xde>
		{
			g = 0;
    2e18:	10 92 96 06 	sts	0x0696, r1
		{
			transmit_dataA(active_row[g]);//{0x80,0x40,0x20,0x10,0x08,0x04,0x02,0x01};//goes from top to bottom
			transmit_dataB(active_green[g]);//column values green
			g++;
		}
		break;
    2e1c:	4a c0       	rjmp	.+148    	; 0x2eb2 <render_SM+0x172>
		{
			g = 0;
		}
		else
		{
			transmit_dataA(active_row[g]);//{0x80,0x40,0x20,0x10,0x08,0x04,0x02,0x01};//goes from top to bottom
    2e1e:	80 91 96 06 	lds	r24, 0x0696
    2e22:	88 2f       	mov	r24, r24
    2e24:	90 e0       	ldi	r25, 0x00	; 0
    2e26:	8b 5e       	subi	r24, 0xEB	; 235
    2e28:	9e 4f       	sbci	r25, 0xFE	; 254
    2e2a:	fc 01       	movw	r30, r24
    2e2c:	80 81       	ld	r24, Z
    2e2e:	ed de       	rcall	.-550    	; 0x2c0a <transmit_dataA>
			transmit_dataB(active_green[g]);//column values green
    2e30:	80 91 96 06 	lds	r24, 0x0696
    2e34:	88 2f       	mov	r24, r24
    2e36:	90 e0       	ldi	r25, 0x00	; 0
    2e38:	88 0f       	add	r24, r24
    2e3a:	99 1f       	adc	r25, r25
    2e3c:	88 0f       	add	r24, r24
    2e3e:	99 1f       	adc	r25, r25
    2e40:	8b 5a       	subi	r24, 0xAB	; 171
    2e42:	99 4f       	sbci	r25, 0xF9	; 249
    2e44:	fc 01       	movw	r30, r24
    2e46:	80 81       	ld	r24, Z
    2e48:	91 81       	ldd	r25, Z+1	; 0x01
    2e4a:	a2 81       	ldd	r26, Z+2	; 0x02
    2e4c:	b3 81       	ldd	r27, Z+3	; 0x03
    2e4e:	bc 01       	movw	r22, r24
    2e50:	cd 01       	movw	r24, r26
    2e52:	24 df       	rcall	.-440    	; 0x2c9c <transmit_dataB>
			g++;
    2e54:	80 91 96 06 	lds	r24, 0x0696
    2e58:	8f 5f       	subi	r24, 0xFF	; 255
    2e5a:	80 93 96 06 	sts	0x0696, r24
		}
		break;
    2e5e:	29 c0       	rjmp	.+82     	; 0x2eb2 <render_SM+0x172>
		
		case blue_display:
		if(b > 7)
    2e60:	80 91 97 06 	lds	r24, 0x0697
    2e64:	88 30       	cpi	r24, 0x08	; 8
    2e66:	18 f0       	brcs	.+6      	; 0x2e6e <render_SM+0x12e>
		{
			b = 0;
    2e68:	10 92 97 06 	sts	0x0697, r1
			transmit_dataA(active_row[b]);
			transmit_dataB(active_blue[b]);
			b++;
		}
		//state = red_display;
		break;
    2e6c:	22 c0       	rjmp	.+68     	; 0x2eb2 <render_SM+0x172>
		{
			b = 0;
		}
		else
		{
			transmit_dataA(active_row[b]);
    2e6e:	80 91 97 06 	lds	r24, 0x0697
    2e72:	88 2f       	mov	r24, r24
    2e74:	90 e0       	ldi	r25, 0x00	; 0
    2e76:	8b 5e       	subi	r24, 0xEB	; 235
    2e78:	9e 4f       	sbci	r25, 0xFE	; 254
    2e7a:	fc 01       	movw	r30, r24
    2e7c:	80 81       	ld	r24, Z
    2e7e:	c5 de       	rcall	.-630    	; 0x2c0a <transmit_dataA>
			transmit_dataB(active_blue[b]);
    2e80:	80 91 97 06 	lds	r24, 0x0697
    2e84:	88 2f       	mov	r24, r24
    2e86:	90 e0       	ldi	r25, 0x00	; 0
    2e88:	88 0f       	add	r24, r24
    2e8a:	99 1f       	adc	r25, r25
    2e8c:	88 0f       	add	r24, r24
    2e8e:	99 1f       	adc	r25, r25
    2e90:	8b 5c       	subi	r24, 0xCB	; 203
    2e92:	99 4f       	sbci	r25, 0xF9	; 249
    2e94:	fc 01       	movw	r30, r24
    2e96:	80 81       	ld	r24, Z
    2e98:	91 81       	ldd	r25, Z+1	; 0x01
    2e9a:	a2 81       	ldd	r26, Z+2	; 0x02
    2e9c:	b3 81       	ldd	r27, Z+3	; 0x03
    2e9e:	bc 01       	movw	r22, r24
    2ea0:	cd 01       	movw	r24, r26
    2ea2:	fc de       	rcall	.-520    	; 0x2c9c <transmit_dataB>
			b++;
    2ea4:	80 91 97 06 	lds	r24, 0x0697
    2ea8:	8f 5f       	subi	r24, 0xFF	; 255
    2eaa:	80 93 97 06 	sts	0x0697, r24
		}
		//state = red_display;
		break;
    2eae:	01 c0       	rjmp	.+2      	; 0x2eb2 <render_SM+0x172>
		
		default:
		//do nothing
		break;
    2eb0:	00 00       	nop
	}
	return state;
    2eb2:	89 81       	ldd	r24, Y+1	; 0x01
    2eb4:	9a 81       	ldd	r25, Y+2	; 0x02
}
    2eb6:	0f 90       	pop	r0
    2eb8:	0f 90       	pop	r0
    2eba:	df 91       	pop	r29
    2ebc:	cf 91       	pop	r28
    2ebe:	08 95       	ret

00002ec0 <control_SM>:
//state machine calls on getControllerData function to receive input from controller
//getControllerData modifies the buttons vector
//after certain buttons are pressed
//it will alter the arrays which contain what needs to be rendered'
int control_SM(int state)
{
    2ec0:	cf 93       	push	r28
    2ec2:	df 93       	push	r29
    2ec4:	00 d0       	rcall	.+0      	; 0x2ec6 <control_SM+0x6>
    2ec6:	cd b7       	in	r28, 0x3d	; 61
    2ec8:	de b7       	in	r29, 0x3e	; 62
    2eca:	9a 83       	std	Y+2, r25	; 0x02
    2ecc:	89 83       	std	Y+1, r24	; 0x01
	getControllerData();
    2ece:	0e de       	rcall	.-996    	; 0x2aec <getControllerData>
	// === Transitions === //////////////////////
	switch (state)
    2ed0:	89 81       	ldd	r24, Y+1	; 0x01
    2ed2:	9a 81       	ldd	r25, Y+2	; 0x02
    2ed4:	aa 27       	eor	r26, r26
    2ed6:	97 fd       	sbrc	r25, 7
    2ed8:	a0 95       	com	r26
    2eda:	ba 2f       	mov	r27, r26
    2edc:	40 e0       	ldi	r20, 0x00	; 0
    2ede:	50 e0       	ldi	r21, 0x00	; 0
    2ee0:	24 e1       	ldi	r18, 0x14	; 20
    2ee2:	30 e0       	ldi	r19, 0x00	; 0
    2ee4:	84 1b       	sub	r24, r20
    2ee6:	95 0b       	sbc	r25, r21
    2ee8:	28 17       	cp	r18, r24
    2eea:	39 07       	cpc	r19, r25
    2eec:	08 f4       	brcc	.+2      	; 0x2ef0 <control_SM+0x30>
    2eee:	4b c1       	rjmp	.+662    	; 0x3186 <control_SM+0x2c6>
    2ef0:	8a 5b       	subi	r24, 0xBA	; 186
    2ef2:	9f 4f       	sbci	r25, 0xFF	; 255
    2ef4:	fc 01       	movw	r30, r24
    2ef6:	b6 c4       	rjmp	.+2412   	; 0x3864 <__tablejump2__>
	{
		//5	Up on D-pad //6	Down on D-pad //7	Left on  D-pad //8	Right on D-pad
		case control_wait:
		if(buttons[2])
    2ef8:	80 91 c6 06 	lds	r24, 0x06C6
    2efc:	88 23       	and	r24, r24
    2efe:	29 f0       	breq	.+10     	; 0x2f0a <control_SM+0x4a>
		{			
			state = control_select;
    2f00:	8d e0       	ldi	r24, 0x0D	; 13
    2f02:	90 e0       	ldi	r25, 0x00	; 0
    2f04:	9a 83       	std	Y+2, r25	; 0x02
    2f06:	89 83       	std	Y+1, r24	; 0x01
			break;
    2f08:	44 c1       	rjmp	.+648    	; 0x3192 <control_SM+0x2d2>
		}
		if(!in_air)
    2f0a:	80 91 29 06 	lds	r24, 0x0629
    2f0e:	88 23       	and	r24, r24
    2f10:	09 f0       	breq	.+2      	; 0x2f14 <control_SM+0x54>
    2f12:	7c c0       	rjmp	.+248    	; 0x300c <control_SM+0x14c>
		{
				//JUMPING
				if(buttons[0])//b button
    2f14:	80 91 c4 06 	lds	r24, 0x06C4
    2f18:	88 23       	and	r24, r24
    2f1a:	31 f1       	breq	.+76     	; 0x2f68 <control_SM+0xa8>
				{
					state = control_B;
    2f1c:	85 e0       	ldi	r24, 0x05	; 5
    2f1e:	90 e0       	ldi	r25, 0x00	; 0
    2f20:	9a 83       	std	Y+2, r25	; 0x02
    2f22:	89 83       	std	Y+1, r24	; 0x01
					//OTHER POSSIBLE JUMPING ACTIONS
					if(buttons[6])//left also pressed (left jump)
    2f24:	80 91 ca 06 	lds	r24, 0x06CA
    2f28:	88 23       	and	r24, r24
    2f2a:	21 f0       	breq	.+8      	; 0x2f34 <control_SM+0x74>
					{
						state = control_leftB;
    2f2c:	83 e1       	ldi	r24, 0x13	; 19
    2f2e:	90 e0       	ldi	r25, 0x00	; 0
    2f30:	9a 83       	std	Y+2, r25	; 0x02
    2f32:	89 83       	std	Y+1, r24	; 0x01
					}
					if(buttons[7])//right and B (right jump)
    2f34:	80 91 cb 06 	lds	r24, 0x06CB
    2f38:	88 23       	and	r24, r24
    2f3a:	21 f0       	breq	.+8      	; 0x2f44 <control_SM+0x84>
					{
						state = control_rightB;
    2f3c:	82 e1       	ldi	r24, 0x12	; 18
    2f3e:	90 e0       	ldi	r25, 0x00	; 0
    2f40:	9a 83       	std	Y+2, r25	; 0x02
    2f42:	89 83       	std	Y+1, r24	; 0x01
					}
					if(buttons[9])// B and X pressed (JUMP AND SUBWEAPON)
    2f44:	80 91 cd 06 	lds	r24, 0x06CD
    2f48:	88 23       	and	r24, r24
    2f4a:	21 f0       	breq	.+8      	; 0x2f54 <control_SM+0x94>
					{
					  state = control_BX;
    2f4c:	8c e0       	ldi	r24, 0x0C	; 12
    2f4e:	90 e0       	ldi	r25, 0x00	; 0
    2f50:	9a 83       	std	Y+2, r25	; 0x02
    2f52:	89 83       	std	Y+1, r24	; 0x01
					}
					if(buttons[1])//jump whip (B Y)
    2f54:	80 91 c5 06 	lds	r24, 0x06C5
    2f58:	88 23       	and	r24, r24
    2f5a:	09 f4       	brne	.+2      	; 0x2f5e <control_SM+0x9e>
    2f5c:	19 c1       	rjmp	.+562    	; 0x3190 <control_SM+0x2d0>
					{
						state = control_BY;
    2f5e:	88 e0       	ldi	r24, 0x08	; 8
    2f60:	90 e0       	ldi	r25, 0x00	; 0
    2f62:	9a 83       	std	Y+2, r25	; 0x02
    2f64:	89 83       	std	Y+1, r24	; 0x01
			    state = control_X;	
			}
		}
		
		//do nothing otherwise
		break;
    2f66:	14 c1       	rjmp	.+552    	; 0x3190 <control_SM+0x2d0>
					if(buttons[1])//jump whip (B Y)
					{
						state = control_BY;
					}
				}
				else if(buttons[1])//y button pressed (WHIP HAS PRIORITY OVER MOVEMENT)
    2f68:	80 91 c5 06 	lds	r24, 0x06C5
    2f6c:	88 23       	and	r24, r24
    2f6e:	01 f1       	breq	.+64     	; 0x2fb0 <control_SM+0xf0>
				{
				  state = control_Y;
    2f70:	87 e0       	ldi	r24, 0x07	; 7
    2f72:	90 e0       	ldi	r25, 0x00	; 0
    2f74:	9a 83       	std	Y+2, r25	; 0x02
    2f76:	89 83       	std	Y+1, r24	; 0x01
				  if(buttons[0]) //jump whip
    2f78:	80 91 c4 06 	lds	r24, 0x06C4
    2f7c:	88 23       	and	r24, r24
    2f7e:	29 f0       	breq	.+10     	; 0x2f8a <control_SM+0xca>
				  {
					  state = control_BY;
    2f80:	88 e0       	ldi	r24, 0x08	; 8
    2f82:	90 e0       	ldi	r25, 0x00	; 0
    2f84:	9a 83       	std	Y+2, r25	; 0x02
    2f86:	89 83       	std	Y+1, r24	; 0x01
			    state = control_X;	
			}
		}
		
		//do nothing otherwise
		break;
    2f88:	03 c1       	rjmp	.+518    	; 0x3190 <control_SM+0x2d0>
				  state = control_Y;
				  if(buttons[0]) //jump whip
				  {
					  state = control_BY;
				  }
				  else if(buttons[5])//down whip
    2f8a:	80 91 c9 06 	lds	r24, 0x06C9
    2f8e:	88 23       	and	r24, r24
    2f90:	29 f0       	breq	.+10     	; 0x2f9c <control_SM+0xdc>
				  {
					  state = control_downY;
    2f92:	8b e0       	ldi	r24, 0x0B	; 11
    2f94:	90 e0       	ldi	r25, 0x00	; 0
    2f96:	9a 83       	std	Y+2, r25	; 0x02
    2f98:	89 83       	std	Y+1, r24	; 0x01
			    state = control_X;	
			}
		}
		
		//do nothing otherwise
		break;
    2f9a:	fa c0       	rjmp	.+500    	; 0x3190 <control_SM+0x2d0>
				  }
				  else if(buttons[5])//down whip
				  {
					  state = control_downY;
				  }
				  else if(buttons[6])//left whip
    2f9c:	80 91 ca 06 	lds	r24, 0x06CA
    2fa0:	88 23       	and	r24, r24
    2fa2:	09 f4       	brne	.+2      	; 0x2fa6 <control_SM+0xe6>
    2fa4:	f5 c0       	rjmp	.+490    	; 0x3190 <control_SM+0x2d0>
				  {
					  state = control_leftY;
    2fa6:	84 e1       	ldi	r24, 0x14	; 20
    2fa8:	90 e0       	ldi	r25, 0x00	; 0
    2faa:	9a 83       	std	Y+2, r25	; 0x02
    2fac:	89 83       	std	Y+1, r24	; 0x01
			    state = control_X;	
			}
		}
		
		//do nothing otherwise
		break;
    2fae:	f0 c0       	rjmp	.+480    	; 0x3190 <control_SM+0x2d0>
				  else if(buttons[6])//left whip
				  {
					  state = control_leftY;
				  }
				}
				else if(buttons[9])//x button pressed (SUB WEP HAS PRIORITY OVER MOVEMENT)
    2fb0:	80 91 cd 06 	lds	r24, 0x06CD
    2fb4:	88 23       	and	r24, r24
    2fb6:	29 f0       	breq	.+10     	; 0x2fc2 <control_SM+0x102>
				{
				  state = control_X;
    2fb8:	86 e0       	ldi	r24, 0x06	; 6
    2fba:	90 e0       	ldi	r25, 0x00	; 0
    2fbc:	9a 83       	std	Y+2, r25	; 0x02
    2fbe:	89 83       	std	Y+1, r24	; 0x01
			    state = control_X;	
			}
		}
		
		//do nothing otherwise
		break;
    2fc0:	e7 c0       	rjmp	.+462    	; 0x3190 <control_SM+0x2d0>
				}
				else if(buttons[9])//x button pressed (SUB WEP HAS PRIORITY OVER MOVEMENT)
				{
				  state = control_X;
				}
				else if(buttons[6])//left button pressed
    2fc2:	80 91 ca 06 	lds	r24, 0x06CA
    2fc6:	88 23       	and	r24, r24
    2fc8:	29 f0       	breq	.+10     	; 0x2fd4 <control_SM+0x114>
				{
					state = control_left;
    2fca:	81 e0       	ldi	r24, 0x01	; 1
    2fcc:	90 e0       	ldi	r25, 0x00	; 0
    2fce:	9a 83       	std	Y+2, r25	; 0x02
    2fd0:	89 83       	std	Y+1, r24	; 0x01
			    state = control_X;	
			}
		}
		
		//do nothing otherwise
		break;
    2fd2:	de c0       	rjmp	.+444    	; 0x3190 <control_SM+0x2d0>
				}
				else if(buttons[6])//left button pressed
				{
					state = control_left;
				}
				else if(buttons[7])//right
    2fd4:	80 91 cb 06 	lds	r24, 0x06CB
    2fd8:	88 23       	and	r24, r24
    2fda:	29 f0       	breq	.+10     	; 0x2fe6 <control_SM+0x126>
				{
					state = control_right;
    2fdc:	82 e0       	ldi	r24, 0x02	; 2
    2fde:	90 e0       	ldi	r25, 0x00	; 0
    2fe0:	9a 83       	std	Y+2, r25	; 0x02
    2fe2:	89 83       	std	Y+1, r24	; 0x01
			    state = control_X;	
			}
		}
		
		//do nothing otherwise
		break;
    2fe4:	d5 c0       	rjmp	.+426    	; 0x3190 <control_SM+0x2d0>
				}
				else if(buttons[7])//right
				{
					state = control_right;
				}
				else if(buttons[4])//up
    2fe6:	80 91 c8 06 	lds	r24, 0x06C8
    2fea:	88 23       	and	r24, r24
    2fec:	29 f0       	breq	.+10     	; 0x2ff8 <control_SM+0x138>
				{
					state = control_up ;
    2fee:	83 e0       	ldi	r24, 0x03	; 3
    2ff0:	90 e0       	ldi	r25, 0x00	; 0
    2ff2:	9a 83       	std	Y+2, r25	; 0x02
    2ff4:	89 83       	std	Y+1, r24	; 0x01
			    state = control_X;	
			}
		}
		
		//do nothing otherwise
		break;
    2ff6:	cc c0       	rjmp	.+408    	; 0x3190 <control_SM+0x2d0>
				}
				else if(buttons[4])//up
				{
					state = control_up ;
				}
				else if(buttons[5])//down
    2ff8:	80 91 c9 06 	lds	r24, 0x06C9
    2ffc:	88 23       	and	r24, r24
    2ffe:	09 f4       	brne	.+2      	; 0x3002 <control_SM+0x142>
    3000:	c7 c0       	rjmp	.+398    	; 0x3190 <control_SM+0x2d0>
				{
					state = control_down;
    3002:	84 e0       	ldi	r24, 0x04	; 4
    3004:	90 e0       	ldi	r25, 0x00	; 0
    3006:	9a 83       	std	Y+2, r25	; 0x02
    3008:	89 83       	std	Y+1, r24	; 0x01
			    state = control_X;	
			}
		}
		
		//do nothing otherwise
		break;
    300a:	c2 c0       	rjmp	.+388    	; 0x3190 <control_SM+0x2d0>
			//0	B
			//1	Y
			//9 X
			//Only 2 actions could be performed in the air at any time
			//this is limited to using the whip(Y) or using the subwep(X)
			if(buttons[1])//y button pressed
    300c:	80 91 c5 06 	lds	r24, 0x06C5
    3010:	88 23       	and	r24, r24
    3012:	29 f0       	breq	.+10     	; 0x301e <control_SM+0x15e>
			{
				state = control_Y;
    3014:	87 e0       	ldi	r24, 0x07	; 7
    3016:	90 e0       	ldi	r25, 0x00	; 0
    3018:	9a 83       	std	Y+2, r25	; 0x02
    301a:	89 83       	std	Y+1, r24	; 0x01
			    state = control_X;	
			}
		}
		
		//do nothing otherwise
		break;
    301c:	b9 c0       	rjmp	.+370    	; 0x3190 <control_SM+0x2d0>
			//this is limited to using the whip(Y) or using the subwep(X)
			if(buttons[1])//y button pressed
			{
				state = control_Y;
			}
			else if(buttons[9])//x button pressed
    301e:	80 91 cd 06 	lds	r24, 0x06CD
    3022:	88 23       	and	r24, r24
    3024:	09 f4       	brne	.+2      	; 0x3028 <control_SM+0x168>
    3026:	b4 c0       	rjmp	.+360    	; 0x3190 <control_SM+0x2d0>
			{
			    state = control_X;	
    3028:	86 e0       	ldi	r24, 0x06	; 6
    302a:	90 e0       	ldi	r25, 0x00	; 0
    302c:	9a 83       	std	Y+2, r25	; 0x02
    302e:	89 83       	std	Y+1, r24	; 0x01
			}
		}
		
		//do nothing otherwise
		break;
    3030:	af c0       	rjmp	.+350    	; 0x3190 <control_SM+0x2d0>
		///////DPAD BASIC MOVEMENT/////////
		case control_left:
		if(buttons[0])//left also pressed (left jump)
    3032:	80 91 c4 06 	lds	r24, 0x06C4
    3036:	88 23       	and	r24, r24
    3038:	29 f0       	breq	.+10     	; 0x3044 <control_SM+0x184>
		{
		  state = control_leftB;
    303a:	83 e1       	ldi	r24, 0x13	; 19
    303c:	90 e0       	ldi	r25, 0x00	; 0
    303e:	9a 83       	std	Y+2, r25	; 0x02
    3040:	89 83       	std	Y+1, r24	; 0x01
		}
		else
		{
			state = control_wait;
		}
		break;
    3042:	a7 c0       	rjmp	.+334    	; 0x3192 <control_SM+0x2d2>
		case control_left:
		if(buttons[0])//left also pressed (left jump)
		{
		  state = control_leftB;
		}
		else if(buttons[1])//whip Y
    3044:	80 91 c5 06 	lds	r24, 0x06C5
    3048:	88 23       	and	r24, r24
    304a:	51 f0       	breq	.+20     	; 0x3060 <control_SM+0x1a0>
		{
			moving_left = 1;
    304c:	81 e0       	ldi	r24, 0x01	; 1
    304e:	80 93 2d 06 	sts	0x062D, r24
			moving_right = 0;
    3052:	10 92 2e 06 	sts	0x062E, r1
			state = control_leftY;
    3056:	84 e1       	ldi	r24, 0x14	; 20
    3058:	90 e0       	ldi	r25, 0x00	; 0
    305a:	9a 83       	std	Y+2, r25	; 0x02
    305c:	89 83       	std	Y+1, r24	; 0x01
		}
		else
		{
			state = control_wait;
		}
		break;
    305e:	99 c0       	rjmp	.+306    	; 0x3192 <control_SM+0x2d2>
		{
			moving_left = 1;
			moving_right = 0;
			state = control_leftY;
		}
		else if(buttons[6])
    3060:	80 91 ca 06 	lds	r24, 0x06CA
    3064:	88 23       	and	r24, r24
    3066:	29 f0       	breq	.+10     	; 0x3072 <control_SM+0x1b2>
		{
			state = control_left;
    3068:	81 e0       	ldi	r24, 0x01	; 1
    306a:	90 e0       	ldi	r25, 0x00	; 0
    306c:	9a 83       	std	Y+2, r25	; 0x02
    306e:	89 83       	std	Y+1, r24	; 0x01
		}
		else
		{
			state = control_wait;
		}
		break;
    3070:	90 c0       	rjmp	.+288    	; 0x3192 <control_SM+0x2d2>
		{
			state = control_left;
		}
		else
		{
			state = control_wait;
    3072:	1a 82       	std	Y+2, r1	; 0x02
    3074:	19 82       	std	Y+1, r1	; 0x01
		}
		break;
    3076:	8d c0       	rjmp	.+282    	; 0x3192 <control_SM+0x2d2>
		
		case control_right:
		if(buttons[0] && !in_air)
    3078:	80 91 c4 06 	lds	r24, 0x06C4
    307c:	88 23       	and	r24, r24
    307e:	49 f0       	breq	.+18     	; 0x3092 <control_SM+0x1d2>
    3080:	80 91 29 06 	lds	r24, 0x0629
    3084:	88 23       	and	r24, r24
    3086:	29 f4       	brne	.+10     	; 0x3092 <control_SM+0x1d2>
		{
			state = control_rightB;
    3088:	82 e1       	ldi	r24, 0x12	; 18
    308a:	90 e0       	ldi	r25, 0x00	; 0
    308c:	9a 83       	std	Y+2, r25	; 0x02
    308e:	89 83       	std	Y+1, r24	; 0x01
			state = control_right;
		}
		else{
			state = control_wait;
		}
		break;
    3090:	80 c0       	rjmp	.+256    	; 0x3192 <control_SM+0x2d2>
		case control_right:
		if(buttons[0] && !in_air)
		{
			state = control_rightB;
		}
		else if(buttons[1])//whip Y
    3092:	80 91 c5 06 	lds	r24, 0x06C5
    3096:	88 23       	and	r24, r24
    3098:	29 f0       	breq	.+10     	; 0x30a4 <control_SM+0x1e4>
		{
			state = control_Y;
    309a:	87 e0       	ldi	r24, 0x07	; 7
    309c:	90 e0       	ldi	r25, 0x00	; 0
    309e:	9a 83       	std	Y+2, r25	; 0x02
    30a0:	89 83       	std	Y+1, r24	; 0x01
			state = control_right;
		}
		else{
			state = control_wait;
		}
		break;
    30a2:	77 c0       	rjmp	.+238    	; 0x3192 <control_SM+0x2d2>
		}
		else if(buttons[1])//whip Y
		{
			state = control_Y;
		}
		else if(buttons[7])
    30a4:	80 91 cb 06 	lds	r24, 0x06CB
    30a8:	88 23       	and	r24, r24
    30aa:	29 f0       	breq	.+10     	; 0x30b6 <control_SM+0x1f6>
		{
			state = control_right;
    30ac:	82 e0       	ldi	r24, 0x02	; 2
    30ae:	90 e0       	ldi	r25, 0x00	; 0
    30b0:	9a 83       	std	Y+2, r25	; 0x02
    30b2:	89 83       	std	Y+1, r24	; 0x01
		}
		else{
			state = control_wait;
		}
		break;
    30b4:	6e c0       	rjmp	.+220    	; 0x3192 <control_SM+0x2d2>
		else if(buttons[7])
		{
			state = control_right;
		}
		else{
			state = control_wait;
    30b6:	1a 82       	std	Y+2, r1	; 0x02
    30b8:	19 82       	std	Y+1, r1	; 0x01
		}
		break;
    30ba:	6b c0       	rjmp	.+214    	; 0x3192 <control_SM+0x2d2>
		
		case control_up:
		if(buttons[4])
    30bc:	80 91 c8 06 	lds	r24, 0x06C8
    30c0:	88 23       	and	r24, r24
    30c2:	29 f0       	breq	.+10     	; 0x30ce <control_SM+0x20e>
		{
			state = control_up; //UP doesn't do anything
    30c4:	83 e0       	ldi	r24, 0x03	; 3
    30c6:	90 e0       	ldi	r25, 0x00	; 0
    30c8:	9a 83       	std	Y+2, r25	; 0x02
    30ca:	89 83       	std	Y+1, r24	; 0x01
		}
		else
		{
			state = control_wait;
		}
		break;
    30cc:	62 c0       	rjmp	.+196    	; 0x3192 <control_SM+0x2d2>
		{
			state = control_up; //UP doesn't do anything
		}
		else
		{
			state = control_wait;
    30ce:	1a 82       	std	Y+2, r1	; 0x02
    30d0:	19 82       	std	Y+1, r1	; 0x01
		}
		break;
    30d2:	5f c0       	rjmp	.+190    	; 0x3192 <control_SM+0x2d2>
		
		case control_down:
		if(buttons[5] && !buttons[1])//holding down but no Y pressed
    30d4:	80 91 c9 06 	lds	r24, 0x06C9
    30d8:	88 23       	and	r24, r24
    30da:	49 f0       	breq	.+18     	; 0x30ee <control_SM+0x22e>
    30dc:	80 91 c5 06 	lds	r24, 0x06C5
    30e0:	88 23       	and	r24, r24
    30e2:	29 f4       	brne	.+10     	; 0x30ee <control_SM+0x22e>
		{
			state = control_down;
    30e4:	84 e0       	ldi	r24, 0x04	; 4
    30e6:	90 e0       	ldi	r25, 0x00	; 0
    30e8:	9a 83       	std	Y+2, r25	; 0x02
    30ea:	89 83       	std	Y+1, r24	; 0x01
		else
		{
			
			state = control_wait;
		}
		break;
    30ec:	52 c0       	rjmp	.+164    	; 0x3192 <control_SM+0x2d2>
		case control_down:
		if(buttons[5] && !buttons[1])//holding down but no Y pressed
		{
			state = control_down;
		}
		else if(buttons[1])
    30ee:	80 91 c5 06 	lds	r24, 0x06C5
    30f2:	88 23       	and	r24, r24
    30f4:	51 f0       	breq	.+20     	; 0x310a <control_SM+0x24a>
		{
			crouched = 1;
    30f6:	81 e0       	ldi	r24, 0x01	; 1
    30f8:	80 93 2c 06 	sts	0x062C, r24
			in_air = 0;
    30fc:	10 92 29 06 	sts	0x0629, r1
			state = control_downY;
    3100:	8b e0       	ldi	r24, 0x0B	; 11
    3102:	90 e0       	ldi	r25, 0x00	; 0
    3104:	9a 83       	std	Y+2, r25	; 0x02
    3106:	89 83       	std	Y+1, r24	; 0x01
		else
		{
			
			state = control_wait;
		}
		break;
    3108:	44 c0       	rjmp	.+136    	; 0x3192 <control_SM+0x2d2>
			state = control_downY;
		}
		else
		{
			
			state = control_wait;
    310a:	1a 82       	std	Y+2, r1	; 0x02
    310c:	19 82       	std	Y+1, r1	; 0x01
		}
		break;
    310e:	41 c0       	rjmp	.+130    	; 0x3192 <control_SM+0x2d2>
		////////////END DPAD///////////////
		
		//////////START B Y X /////////////////
		case control_B:
		//state = control_jumpanim1;
		state = control_wait;
    3110:	1a 82       	std	Y+2, r1	; 0x02
    3112:	19 82       	std	Y+1, r1	; 0x01
		break;
    3114:	3e c0       	rjmp	.+124    	; 0x3192 <control_SM+0x2d2>
		
		case control_leftB:
		state = control_jumpanim1;
    3116:	8f e0       	ldi	r24, 0x0F	; 15
    3118:	90 e0       	ldi	r25, 0x00	; 0
    311a:	9a 83       	std	Y+2, r25	; 0x02
    311c:	89 83       	std	Y+1, r24	; 0x01
		break;
    311e:	39 c0       	rjmp	.+114    	; 0x3192 <control_SM+0x2d2>
		
		case control_rightB:
		state = control_jumpanim1;
    3120:	8f e0       	ldi	r24, 0x0F	; 15
    3122:	90 e0       	ldi	r25, 0x00	; 0
    3124:	9a 83       	std	Y+2, r25	; 0x02
    3126:	89 83       	std	Y+1, r24	; 0x01
		break;
    3128:	34 c0       	rjmp	.+104    	; 0x3192 <control_SM+0x2d2>
		case control_jumpanim1:
		state = control_jumpanim2;
    312a:	80 e1       	ldi	r24, 0x10	; 16
    312c:	90 e0       	ldi	r25, 0x00	; 0
    312e:	9a 83       	std	Y+2, r25	; 0x02
    3130:	89 83       	std	Y+1, r24	; 0x01
		
		break;
    3132:	2f c0       	rjmp	.+94     	; 0x3192 <control_SM+0x2d2>
		
		case control_jumpanim2:
		state = control_jumpanim3;
    3134:	81 e1       	ldi	r24, 0x11	; 17
    3136:	90 e0       	ldi	r25, 0x00	; 0
    3138:	9a 83       	std	Y+2, r25	; 0x02
    313a:	89 83       	std	Y+1, r24	; 0x01
		//state = control_wait;
		break;
    313c:	2a c0       	rjmp	.+84     	; 0x3192 <control_SM+0x2d2>
		
		case control_jumpanim3:
		state = control_wait;
    313e:	1a 82       	std	Y+2, r1	; 0x02
    3140:	19 82       	std	Y+1, r1	; 0x01
		break;
    3142:	27 c0       	rjmp	.+78     	; 0x3192 <control_SM+0x2d2>
		case control_X: 
		state = control_wait;
    3144:	1a 82       	std	Y+2, r1	; 0x02
    3146:	19 82       	std	Y+1, r1	; 0x01
		break;
    3148:	24 c0       	rjmp	.+72     	; 0x3192 <control_SM+0x2d2>
		 
		case control_Y: 
		retract_whip();
    314a:	10 dc       	rcall	.-2016   	; 0x296c <retract_whip>
		state = control_wait;
    314c:	1a 82       	std	Y+2, r1	; 0x02
    314e:	19 82       	std	Y+1, r1	; 0x01
		break;
    3150:	20 c0       	rjmp	.+64     	; 0x3192 <control_SM+0x2d2>
		
		case control_BY:
		retract_whip();
    3152:	0c dc       	rcall	.-2024   	; 0x296c <retract_whip>
		state = control_wait;
    3154:	1a 82       	std	Y+2, r1	; 0x02
    3156:	19 82       	std	Y+1, r1	; 0x01
		break;
    3158:	1c c0       	rjmp	.+56     	; 0x3192 <control_SM+0x2d2>
		
		case control_rightBY:
		retract_whip();
    315a:	08 dc       	rcall	.-2032   	; 0x296c <retract_whip>
		state = control_wait;
    315c:	1a 82       	std	Y+2, r1	; 0x02
    315e:	19 82       	std	Y+1, r1	; 0x01
		break;
    3160:	18 c0       	rjmp	.+48     	; 0x3192 <control_SM+0x2d2>
		
		case control_leftBY:
		retract_whip();
    3162:	04 dc       	rcall	.-2040   	; 0x296c <retract_whip>
		state = control_wait;
    3164:	1a 82       	std	Y+2, r1	; 0x02
    3166:	19 82       	std	Y+1, r1	; 0x01
		break;
    3168:	14 c0       	rjmp	.+40     	; 0x3192 <control_SM+0x2d2>
		
		case control_leftY:
		retract_whip();
    316a:	00 dc       	rcall	.-2048   	; 0x296c <retract_whip>
		state = control_wait;
    316c:	1a 82       	std	Y+2, r1	; 0x02
    316e:	19 82       	std	Y+1, r1	; 0x01
		break;
    3170:	10 c0       	rjmp	.+32     	; 0x3192 <control_SM+0x2d2>
		
		case control_downY:
		retract_whip();
    3172:	fc db       	rcall	.-2056   	; 0x296c <retract_whip>
		state = control_wait;
    3174:	1a 82       	std	Y+2, r1	; 0x02
    3176:	19 82       	std	Y+1, r1	; 0x01
		break;
    3178:	0c c0       	rjmp	.+24     	; 0x3192 <control_SM+0x2d2>
		
		case control_BX:
		state = control_wait;
    317a:	1a 82       	std	Y+2, r1	; 0x02
    317c:	19 82       	std	Y+1, r1	; 0x01
		break;
    317e:	09 c0       	rjmp	.+18     	; 0x3192 <control_SM+0x2d2>
		break;
		
		case control_select:
		
		
		state = control_wait;
    3180:	1a 82       	std	Y+2, r1	; 0x02
    3182:	19 82       	std	Y+1, r1	; 0x01
		break;
    3184:	06 c0       	rjmp	.+12     	; 0x3192 <control_SM+0x2d2>
		
		default:
		state = control_wait;
    3186:	1a 82       	std	Y+2, r1	; 0x02
    3188:	19 82       	std	Y+1, r1	; 0x01
		break;
    318a:	03 c0       	rjmp	.+6      	; 0x3192 <control_SM+0x2d2>
		state = control_wait;
		break;
		
		case control_start:
		
		break;
    318c:	00 00       	nop
    318e:	01 c0       	rjmp	.+2      	; 0x3192 <control_SM+0x2d2>
			    state = control_X;	
			}
		}
		
		//do nothing otherwise
		break;
    3190:	00 00       	nop
		break;
	}
/////////////////////////////////////////////////////////////////////////////////////////////
////////////////////////////////////////////ACTIONS//////////////////////////////////////////
/////////////////////////////////////////////////////////////////////////////////////////////
	switch (state)//actions
    3192:	89 81       	ldd	r24, Y+1	; 0x01
    3194:	9a 81       	ldd	r25, Y+2	; 0x02
    3196:	aa 27       	eor	r26, r26
    3198:	97 fd       	sbrc	r25, 7
    319a:	a0 95       	com	r26
    319c:	ba 2f       	mov	r27, r26
    319e:	40 e0       	ldi	r20, 0x00	; 0
    31a0:	50 e0       	ldi	r21, 0x00	; 0
    31a2:	24 e1       	ldi	r18, 0x14	; 20
    31a4:	30 e0       	ldi	r19, 0x00	; 0
    31a6:	84 1b       	sub	r24, r20
    31a8:	95 0b       	sbc	r25, r21
    31aa:	28 17       	cp	r18, r24
    31ac:	39 07       	cpc	r19, r25
    31ae:	08 f4       	brcc	.+2      	; 0x31b2 <control_SM+0x2f2>
    31b0:	91 c0       	rjmp	.+290    	; 0x32d4 <control_SM+0x414>
    31b2:	85 5a       	subi	r24, 0xA5	; 165
    31b4:	9f 4f       	sbci	r25, 0xFF	; 255
    31b6:	fc 01       	movw	r30, r24
    31b8:	55 c3       	rjmp	.+1706   	; 0x3864 <__tablejump2__>
	{
		case control_wait: //stationary so see if blocks underneath are empty
		//default to standing position
		if(!in_air)
    31ba:	80 91 29 06 	lds	r24, 0x0629
    31be:	88 23       	and	r24, r24
    31c0:	11 f4       	brne	.+4      	; 0x31c6 <control_SM+0x306>
		{
			has_moved = 0;
    31c2:	10 92 2a 06 	sts	0x062A, r1
		}
		//has_moved = 0;
		fall();	
    31c6:	0e 94 18 0a 	call	0x1430	; 0x1430 <fall>
		break;
    31ca:	87 c0       	rjmp	.+270    	; 0x32da <control_SM+0x41a>
		
		//// D PAD //////////////////
		case control_left:
		moving_left = 1;
    31cc:	81 e0       	ldi	r24, 0x01	; 1
    31ce:	80 93 2d 06 	sts	0x062D, r24
		move_left();
    31d2:	0e 94 0b 05 	call	0xa16	; 0xa16 <move_left>
		break;
    31d6:	81 c0       	rjmp	.+258    	; 0x32da <control_SM+0x41a>
		
		case control_right:
		move_right();
    31d8:	0e 94 66 07 	call	0xecc	; 0xecc <move_right>
		break;
    31dc:	7e c0       	rjmp	.+252    	; 0x32da <control_SM+0x41a>
		case control_up:
		//DOES NOTHING
		break;
		
		case control_down:
		crouch();
    31de:	0e 94 9a 09 	call	0x1334	; 0x1334 <crouch>
		break;
    31e2:	7b c0       	rjmp	.+246    	; 0x32da <control_SM+0x41a>
		
		//////////END D PAD///////////////
		case control_B:
		   jump();
    31e4:	0e 94 1c 0c 	call	0x1838	; 0x1838 <jump>
		   break;
    31e8:	78 c0       	rjmp	.+240    	; 0x32da <control_SM+0x41a>
		
		case control_rightB:
		moving_right = 1;
    31ea:	81 e0       	ldi	r24, 0x01	; 1
    31ec:	80 93 2e 06 	sts	0x062E, r24
		moving_left = 0;
    31f0:	10 92 2d 06 	sts	0x062D, r1
		jump();
    31f4:	0e 94 1c 0c 	call	0x1838	; 0x1838 <jump>
		break;
    31f8:	70 c0       	rjmp	.+224    	; 0x32da <control_SM+0x41a>
		
		case control_leftB:
		moving_left = 1;
    31fa:	81 e0       	ldi	r24, 0x01	; 1
    31fc:	80 93 2d 06 	sts	0x062D, r24
		moving_right = 0;
    3200:	10 92 2e 06 	sts	0x062E, r1
		jump();
    3204:	0e 94 1c 0c 	call	0x1838	; 0x1838 <jump>
		break;
    3208:	68 c0       	rjmp	.+208    	; 0x32da <control_SM+0x41a>
		
		case control_jumpanim1:
		forward_jump();
    320a:	0e 94 34 0e 	call	0x1c68	; 0x1c68 <forward_jump>
		break;
    320e:	65 c0       	rjmp	.+202    	; 0x32da <control_SM+0x41a>
		
		case control_jumpanim2:
		forward_jump();
    3210:	0e 94 34 0e 	call	0x1c68	; 0x1c68 <forward_jump>
		break;
    3214:	62 c0       	rjmp	.+196    	; 0x32da <control_SM+0x41a>
		
		case control_jumpanim3:
		forward_jump();
    3216:	0e 94 34 0e 	call	0x1c68	; 0x1c68 <forward_jump>
		break;
    321a:	5f c0       	rjmp	.+190    	; 0x32da <control_SM+0x41a>
		
		break;
		
		///////////WHIP/////////////
		case control_Y:
		if(!whipped)
    321c:	80 91 34 06 	lds	r24, 0x0634
    3220:	88 23       	and	r24, r24
    3222:	11 f4       	brne	.+4      	; 0x3228 <control_SM+0x368>
		{
			whip();	
    3224:	0e 94 09 10 	call	0x2012	; 0x2012 <whip>
		}
		whipped = 1;
    3228:	81 e0       	ldi	r24, 0x01	; 1
    322a:	80 93 34 06 	sts	0x0634, r24
		break;
    322e:	55 c0       	rjmp	.+170    	; 0x32da <control_SM+0x41a>
		
		case control_BY:
		crouched = 1;
    3230:	81 e0       	ldi	r24, 0x01	; 1
    3232:	80 93 2c 06 	sts	0x062C, r24
		if(!whipped)
    3236:	80 91 34 06 	lds	r24, 0x0634
    323a:	88 23       	and	r24, r24
    323c:	11 f4       	brne	.+4      	; 0x3242 <control_SM+0x382>
		{
			whip();
    323e:	0e 94 09 10 	call	0x2012	; 0x2012 <whip>
		}
		whipped = 1;
    3242:	81 e0       	ldi	r24, 0x01	; 1
    3244:	80 93 34 06 	sts	0x0634, r24
		break;
    3248:	48 c0       	rjmp	.+144    	; 0x32da <control_SM+0x41a>
		
		case control_rightBY:
		moving_left = 0;
    324a:	10 92 2d 06 	sts	0x062D, r1
		moving_right = 1;
    324e:	81 e0       	ldi	r24, 0x01	; 1
    3250:	80 93 2e 06 	sts	0x062E, r24
		crouched = 1;
    3254:	81 e0       	ldi	r24, 0x01	; 1
    3256:	80 93 2c 06 	sts	0x062C, r24
		if(!whipped)
    325a:	80 91 34 06 	lds	r24, 0x0634
    325e:	88 23       	and	r24, r24
    3260:	11 f4       	brne	.+4      	; 0x3266 <control_SM+0x3a6>
		{
			whip();
    3262:	0e 94 09 10 	call	0x2012	; 0x2012 <whip>
		}
		whipped = 1;
    3266:	81 e0       	ldi	r24, 0x01	; 1
    3268:	80 93 34 06 	sts	0x0634, r24
		break;
    326c:	36 c0       	rjmp	.+108    	; 0x32da <control_SM+0x41a>
		
		case control_leftBY:
		moving_left = 1;
    326e:	81 e0       	ldi	r24, 0x01	; 1
    3270:	80 93 2d 06 	sts	0x062D, r24
		moving_right = 0;
    3274:	10 92 2e 06 	sts	0x062E, r1
		crouched = 1;
    3278:	81 e0       	ldi	r24, 0x01	; 1
    327a:	80 93 2c 06 	sts	0x062C, r24
		if(!whipped)
    327e:	80 91 34 06 	lds	r24, 0x0634
    3282:	88 23       	and	r24, r24
    3284:	11 f4       	brne	.+4      	; 0x328a <control_SM+0x3ca>
		{
			whip();
    3286:	0e 94 09 10 	call	0x2012	; 0x2012 <whip>
		}
		whipped = 1;
    328a:	81 e0       	ldi	r24, 0x01	; 1
    328c:	80 93 34 06 	sts	0x0634, r24
		break;
    3290:	24 c0       	rjmp	.+72     	; 0x32da <control_SM+0x41a>
		
		case control_leftY:
		moving_left = 1;
    3292:	81 e0       	ldi	r24, 0x01	; 1
    3294:	80 93 2d 06 	sts	0x062D, r24
		moving_right = 0;
    3298:	10 92 2e 06 	sts	0x062E, r1
		crouched = 1;
    329c:	81 e0       	ldi	r24, 0x01	; 1
    329e:	80 93 2c 06 	sts	0x062C, r24
		if(!whipped)
    32a2:	80 91 34 06 	lds	r24, 0x0634
    32a6:	88 23       	and	r24, r24
    32a8:	11 f4       	brne	.+4      	; 0x32ae <control_SM+0x3ee>
		{
			whip();
    32aa:	0e 94 09 10 	call	0x2012	; 0x2012 <whip>
		}
		whipped = 1;
    32ae:	81 e0       	ldi	r24, 0x01	; 1
    32b0:	80 93 34 06 	sts	0x0634, r24
		break;
    32b4:	12 c0       	rjmp	.+36     	; 0x32da <control_SM+0x41a>
		
		case control_downY:
		crouched = 1;
    32b6:	81 e0       	ldi	r24, 0x01	; 1
    32b8:	80 93 2c 06 	sts	0x062C, r24
		if(!whipped)
    32bc:	80 91 34 06 	lds	r24, 0x0634
    32c0:	88 23       	and	r24, r24
    32c2:	11 f4       	brne	.+4      	; 0x32c8 <control_SM+0x408>
		{
			whip();
    32c4:	0e 94 09 10 	call	0x2012	; 0x2012 <whip>
		}
		whipped = 1;
    32c8:	81 e0       	ldi	r24, 0x01	; 1
    32ca:	80 93 34 06 	sts	0x0634, r24
		break;
    32ce:	05 c0       	rjmp	.+10     	; 0x32da <control_SM+0x41a>
		case control_start:
		
		break;
		
		case control_select:
		reset();
    32d0:	c1 db       	rcall	.-2174   	; 0x2a54 <reset>
		break;
    32d2:	03 c0       	rjmp	.+6      	; 0x32da <control_SM+0x41a>
		
		default: break;
    32d4:	00 00       	nop
    32d6:	01 c0       	rjmp	.+2      	; 0x32da <control_SM+0x41a>
		move_right();
		break;
		
		case control_up:
		//DOES NOTHING
		break;
    32d8:	00 00       	nop
		reset();
		break;
		
		default: break;
	}
	return state;
    32da:	89 81       	ldd	r24, Y+1	; 0x01
    32dc:	9a 81       	ldd	r25, Y+2	; 0x02
}
    32de:	0f 90       	pop	r0
    32e0:	0f 90       	pop	r0
    32e2:	df 91       	pop	r29
    32e4:	cf 91       	pop	r28
    32e6:	08 95       	ret

000032e8 <whip_delay_SM>:

enum whipD_states {delay_whip};
int whip_delay_SM(int state)
{
    32e8:	cf 93       	push	r28
    32ea:	df 93       	push	r29
    32ec:	00 d0       	rcall	.+0      	; 0x32ee <whip_delay_SM+0x6>
    32ee:	cd b7       	in	r28, 0x3d	; 61
    32f0:	de b7       	in	r29, 0x3e	; 62
    32f2:	9a 83       	std	Y+2, r25	; 0x02
    32f4:	89 83       	std	Y+1, r24	; 0x01
	switch(state)
    32f6:	89 81       	ldd	r24, Y+1	; 0x01
    32f8:	9a 81       	ldd	r25, Y+2	; 0x02
    32fa:	00 97       	sbiw	r24, 0x00	; 0
    32fc:	19 f4       	brne	.+6      	; 0x3304 <whip_delay_SM+0x1c>
	{
		case delay_whip:
		state = delay_whip;
    32fe:	1a 82       	std	Y+2, r1	; 0x02
    3300:	19 82       	std	Y+1, r1	; 0x01
		break;
    3302:	03 c0       	rjmp	.+6      	; 0x330a <whip_delay_SM+0x22>
		default:
		state = delay_whip;
    3304:	1a 82       	std	Y+2, r1	; 0x02
    3306:	19 82       	std	Y+1, r1	; 0x01
		break;
    3308:	00 00       	nop
	}
	
	switch(state)
    330a:	89 81       	ldd	r24, Y+1	; 0x01
    330c:	9a 81       	ldd	r25, Y+2	; 0x02
    330e:	00 97       	sbiw	r24, 0x00	; 0
    3310:	39 f4       	brne	.+14     	; 0x3320 <whip_delay_SM+0x38>
	{
		case delay_whip:
		if(whipped)
    3312:	80 91 34 06 	lds	r24, 0x0634
    3316:	88 23       	and	r24, r24
    3318:	31 f0       	breq	.+12     	; 0x3326 <whip_delay_SM+0x3e>
		{
			whipped = 0;
    331a:	10 92 34 06 	sts	0x0634, r1
		}
		break;
    331e:	03 c0       	rjmp	.+6      	; 0x3326 <whip_delay_SM+0x3e>
		default:
		whipped = 0;
    3320:	10 92 34 06 	sts	0x0634, r1
		break;
    3324:	01 c0       	rjmp	.+2      	; 0x3328 <whip_delay_SM+0x40>
		case delay_whip:
		if(whipped)
		{
			whipped = 0;
		}
		break;
    3326:	00 00       	nop
		default:
		whipped = 0;
		break;
	}
	
	return state;
    3328:	89 81       	ldd	r24, Y+1	; 0x01
    332a:	9a 81       	ldd	r25, Y+2	; 0x02
}
    332c:	0f 90       	pop	r0
    332e:	0f 90       	pop	r0
    3330:	df 91       	pop	r29
    3332:	cf 91       	pop	r28
    3334:	08 95       	ret

00003336 <LCD_sm>:

enum LCD_states{LCD_display};
int LCD_sm(int state)
{
    3336:	cf 93       	push	r28
    3338:	df 93       	push	r29
    333a:	00 d0       	rcall	.+0      	; 0x333c <LCD_sm+0x6>
    333c:	cd b7       	in	r28, 0x3d	; 61
    333e:	de b7       	in	r29, 0x3e	; 62
    3340:	9a 83       	std	Y+2, r25	; 0x02
    3342:	89 83       	std	Y+1, r24	; 0x01
	switch(state)
    3344:	89 81       	ldd	r24, Y+1	; 0x01
    3346:	9a 81       	ldd	r25, Y+2	; 0x02
    3348:	00 97       	sbiw	r24, 0x00	; 0
    334a:	19 f4       	brne	.+6      	; 0x3352 <LCD_sm+0x1c>
	{
		case LCD_display:
		state = LCD_display;
    334c:	1a 82       	std	Y+2, r1	; 0x02
    334e:	19 82       	std	Y+1, r1	; 0x01
		break;
    3350:	03 c0       	rjmp	.+6      	; 0x3358 <LCD_sm+0x22>
		default:
		state = LCD_display;
    3352:	1a 82       	std	Y+2, r1	; 0x02
    3354:	19 82       	std	Y+1, r1	; 0x01
		break;
    3356:	00 00       	nop
	}
	
	switch(state)
    3358:	89 81       	ldd	r24, Y+1	; 0x01
    335a:	9a 81       	ldd	r25, Y+2	; 0x02
    335c:	00 97       	sbiw	r24, 0x00	; 0
    335e:	d9 f4       	brne	.+54     	; 0x3396 <LCD_sm+0x60>
	{
		case LCD_display:
		if(player_HP == 0)
    3360:	80 91 04 01 	lds	r24, 0x0104
    3364:	88 23       	and	r24, r24
    3366:	49 f4       	brne	.+18     	; 0x337a <LCD_sm+0x44>
		{
			LCD_DisplayString(17, "YOU LOSE!");
    3368:	6d ef       	ldi	r22, 0xFD	; 253
    336a:	75 e0       	ldi	r23, 0x05	; 5
    336c:	81 e1       	ldi	r24, 0x11	; 17
    336e:	0e 94 bf 02 	call	0x57e	; 0x57e <LCD_DisplayString>
			player_HP = 4;
    3372:	84 e0       	ldi	r24, 0x04	; 4
    3374:	80 93 04 01 	sts	0x0104, r24
				//LCD_DisplayString(1, "")
				LCD_DisplayString(17,"HP:");
				LCD_Cursor(21);
				LCD_WriteData(player_HP+'0');
		}
		break;
    3378:	0f c0       	rjmp	.+30     	; 0x3398 <LCD_sm+0x62>
			player_HP = 4;
		}
		else
		{
				//LCD_DisplayString(1, "")
				LCD_DisplayString(17,"HP:");
    337a:	67 e0       	ldi	r22, 0x07	; 7
    337c:	76 e0       	ldi	r23, 0x06	; 6
    337e:	81 e1       	ldi	r24, 0x11	; 17
    3380:	0e 94 bf 02 	call	0x57e	; 0x57e <LCD_DisplayString>
				LCD_Cursor(21);
    3384:	85 e1       	ldi	r24, 0x15	; 21
    3386:	0e 94 e9 02 	call	0x5d2	; 0x5d2 <LCD_Cursor>
				LCD_WriteData(player_HP+'0');
    338a:	80 91 04 01 	lds	r24, 0x0104
    338e:	80 5d       	subi	r24, 0xD0	; 208
    3390:	0e 94 91 02 	call	0x522	; 0x522 <LCD_WriteData>
		}
		break;
    3394:	01 c0       	rjmp	.+2      	; 0x3398 <LCD_sm+0x62>
		default:
		//do nothing
		break;
    3396:	00 00       	nop
	}
	return state;
    3398:	89 81       	ldd	r24, Y+1	; 0x01
    339a:	9a 81       	ldd	r25, Y+2	; 0x02
}
    339c:	0f 90       	pop	r0
    339e:	0f 90       	pop	r0
    33a0:	df 91       	pop	r29
    33a2:	cf 91       	pop	r28
    33a4:	08 95       	ret

000033a6 <main>:
// Implement scheduler code from PES.
int main()
{
    33a6:	0f 93       	push	r16
    33a8:	1f 93       	push	r17
    33aa:	cf 93       	push	r28
    33ac:	df 93       	push	r29
    33ae:	cd b7       	in	r28, 0x3d	; 61
    33b0:	de b7       	in	r29, 0x3e	; 62
    33b2:	e6 97       	sbiw	r28, 0x36	; 54
    33b4:	0f b6       	in	r0, 0x3f	; 63
    33b6:	f8 94       	cli
    33b8:	de bf       	out	0x3e, r29	; 62
    33ba:	0f be       	out	0x3f, r0	; 63
    33bc:	cd bf       	out	0x3d, r28	; 61
	DDRB = 0xFF; PORTB = 0x00; //output
    33be:	84 e2       	ldi	r24, 0x24	; 36
    33c0:	90 e0       	ldi	r25, 0x00	; 0
    33c2:	2f ef       	ldi	r18, 0xFF	; 255
    33c4:	fc 01       	movw	r30, r24
    33c6:	20 83       	st	Z, r18
    33c8:	85 e2       	ldi	r24, 0x25	; 37
    33ca:	90 e0       	ldi	r25, 0x00	; 0
    33cc:	fc 01       	movw	r30, r24
    33ce:	10 82       	st	Z, r1
	DDRA = 0xFF; PORTA = 0x00; //output 
    33d0:	81 e2       	ldi	r24, 0x21	; 33
    33d2:	90 e0       	ldi	r25, 0x00	; 0
    33d4:	2f ef       	ldi	r18, 0xFF	; 255
    33d6:	fc 01       	movw	r30, r24
    33d8:	20 83       	st	Z, r18
    33da:	82 e2       	ldi	r24, 0x22	; 34
    33dc:	90 e0       	ldi	r25, 0x00	; 0
    33de:	fc 01       	movw	r30, r24
    33e0:	10 82       	st	Z, r1
	DDRC = 0x03; PORTC = 0xFC; //input/output
    33e2:	87 e2       	ldi	r24, 0x27	; 39
    33e4:	90 e0       	ldi	r25, 0x00	; 0
    33e6:	23 e0       	ldi	r18, 0x03	; 3
    33e8:	fc 01       	movw	r30, r24
    33ea:	20 83       	st	Z, r18
    33ec:	88 e2       	ldi	r24, 0x28	; 40
    33ee:	90 e0       	ldi	r25, 0x00	; 0
    33f0:	2c ef       	ldi	r18, 0xFC	; 252
    33f2:	fc 01       	movw	r30, r24
    33f4:	20 83       	st	Z, r18
	DDRD = 0xFF; PORTD = 0x00; //output
    33f6:	8a e2       	ldi	r24, 0x2A	; 42
    33f8:	90 e0       	ldi	r25, 0x00	; 0
    33fa:	2f ef       	ldi	r18, 0xFF	; 255
    33fc:	fc 01       	movw	r30, r24
    33fe:	20 83       	st	Z, r18
    3400:	8b e2       	ldi	r24, 0x2B	; 43
    3402:	90 e0       	ldi	r25, 0x00	; 0
    3404:	fc 01       	movw	r30, r24
    3406:	10 82       	st	Z, r1
	
	LCD_init();
    3408:	0e 94 4e 02 	call	0x49c	; 0x49c <LCD_init>
	//char* whip_stat = strcat("WHIP LVL: ", "1");
	//const unsigned char* test = Belmont.color;
	const unsigned char* mes = ">>SIMPLEVANIA<<";
    340c:	8b e0       	ldi	r24, 0x0B	; 11
    340e:	96 e0       	ldi	r25, 0x06	; 6
    3410:	9c 83       	std	Y+4, r25	; 0x04
    3412:	8b 83       	std	Y+3, r24	; 0x03
	LCD_DisplayString(1, mes);
    3414:	8b 81       	ldd	r24, Y+3	; 0x03
    3416:	9c 81       	ldd	r25, Y+4	; 0x04
    3418:	bc 01       	movw	r22, r24
    341a:	81 e0       	ldi	r24, 0x01	; 1
    341c:	0e 94 bf 02 	call	0x57e	; 0x57e <LCD_DisplayString>
	//LCD_DisplayString(17, "SUB: Dagger");
	//LCD_DisplayString()
	
	cur_level = 1;
    3420:	81 e0       	ldi	r24, 0x01	; 1
    3422:	80 93 05 01 	sts	0x0105, r24
	level_size_index = 0;
    3426:	10 92 30 06 	sts	0x0630, r1
	calc_render_range(lvl_sizes[level_size_index]);
    342a:	80 91 30 06 	lds	r24, 0x0630
    342e:	88 2f       	mov	r24, r24
    3430:	90 e0       	ldi	r25, 0x00	; 0
    3432:	83 51       	subi	r24, 0x13	; 19
    3434:	9a 4f       	sbci	r25, 0xFA	; 250
    3436:	fc 01       	movw	r30, r24
    3438:	80 81       	ld	r24, Z
    343a:	0e 94 2d 03 	call	0x65a	; 0x65a <calc_render_range>
	moving_right = 1;
    343e:	81 e0       	ldi	r24, 0x01	; 1
    3440:	80 93 2e 06 	sts	0x062E, r24
	crouched = 0;
    3444:	10 92 2c 06 	sts	0x062C, r1
	in_air = 0;
    3448:	10 92 29 06 	sts	0x0629, r1
	whipped = 0;
    344c:	10 92 34 06 	sts	0x0634, r1
	
	// Period for the tasks
	unsigned long int renderR_calc = 1;
    3450:	81 e0       	ldi	r24, 0x01	; 1
    3452:	90 e0       	ldi	r25, 0x00	; 0
    3454:	a0 e0       	ldi	r26, 0x00	; 0
    3456:	b0 e0       	ldi	r27, 0x00	; 0
    3458:	8d 83       	std	Y+5, r24	; 0x05
    345a:	9e 83       	std	Y+6, r25	; 0x06
    345c:	af 83       	std	Y+7, r26	; 0x07
    345e:	b8 87       	std	Y+8, r27	; 0x08
	unsigned long int whip_calc = 500;
    3460:	84 ef       	ldi	r24, 0xF4	; 244
    3462:	91 e0       	ldi	r25, 0x01	; 1
    3464:	a0 e0       	ldi	r26, 0x00	; 0
    3466:	b0 e0       	ldi	r27, 0x00	; 0
    3468:	89 87       	std	Y+9, r24	; 0x09
    346a:	9a 87       	std	Y+10, r25	; 0x0a
    346c:	ab 87       	std	Y+11, r26	; 0x0b
    346e:	bc 87       	std	Y+12, r27	; 0x0c
	unsigned long int control_calc = 75;
    3470:	8b e4       	ldi	r24, 0x4B	; 75
    3472:	90 e0       	ldi	r25, 0x00	; 0
    3474:	a0 e0       	ldi	r26, 0x00	; 0
    3476:	b0 e0       	ldi	r27, 0x00	; 0
    3478:	8d 87       	std	Y+13, r24	; 0x0d
    347a:	9e 87       	std	Y+14, r25	; 0x0e
    347c:	af 87       	std	Y+15, r26	; 0x0f
    347e:	b8 8b       	std	Y+16, r27	; 0x10
	unsigned long int LCD_calc = 1000;
    3480:	88 ee       	ldi	r24, 0xE8	; 232
    3482:	93 e0       	ldi	r25, 0x03	; 3
    3484:	a0 e0       	ldi	r26, 0x00	; 0
    3486:	b0 e0       	ldi	r27, 0x00	; 0
    3488:	89 8b       	std	Y+17, r24	; 0x11
    348a:	9a 8b       	std	Y+18, r25	; 0x12
    348c:	ab 8b       	std	Y+19, r26	; 0x13
    348e:	bc 8b       	std	Y+20, r27	; 0x14

	//Calculating GCD
	unsigned long int tmpGCD = 1;
    3490:	81 e0       	ldi	r24, 0x01	; 1
    3492:	90 e0       	ldi	r25, 0x00	; 0
    3494:	a0 e0       	ldi	r26, 0x00	; 0
    3496:	b0 e0       	ldi	r27, 0x00	; 0
    3498:	8d 8b       	std	Y+21, r24	; 0x15
    349a:	9e 8b       	std	Y+22, r25	; 0x16
    349c:	af 8b       	std	Y+23, r26	; 0x17
    349e:	b8 8f       	std	Y+24, r27	; 0x18
	tmpGCD = findGCD(renderR_calc, control_calc);
    34a0:	2d 85       	ldd	r18, Y+13	; 0x0d
    34a2:	3e 85       	ldd	r19, Y+14	; 0x0e
    34a4:	4f 85       	ldd	r20, Y+15	; 0x0f
    34a6:	58 89       	ldd	r21, Y+16	; 0x10
    34a8:	8d 81       	ldd	r24, Y+5	; 0x05
    34aa:	9e 81       	ldd	r25, Y+6	; 0x06
    34ac:	af 81       	ldd	r26, Y+7	; 0x07
    34ae:	b8 85       	ldd	r27, Y+8	; 0x08
    34b0:	bc 01       	movw	r22, r24
    34b2:	cd 01       	movw	r24, r26
    34b4:	5e db       	rcall	.-2372   	; 0x2b72 <findGCD>
    34b6:	dc 01       	movw	r26, r24
    34b8:	cb 01       	movw	r24, r22
    34ba:	8d 8b       	std	Y+21, r24	; 0x15
    34bc:	9e 8b       	std	Y+22, r25	; 0x16
    34be:	af 8b       	std	Y+23, r26	; 0x17
    34c0:	b8 8f       	std	Y+24, r27	; 0x18
	tmpGCD = findGCD(tmpGCD, whip_calc);
    34c2:	29 85       	ldd	r18, Y+9	; 0x09
    34c4:	3a 85       	ldd	r19, Y+10	; 0x0a
    34c6:	4b 85       	ldd	r20, Y+11	; 0x0b
    34c8:	5c 85       	ldd	r21, Y+12	; 0x0c
    34ca:	8d 89       	ldd	r24, Y+21	; 0x15
    34cc:	9e 89       	ldd	r25, Y+22	; 0x16
    34ce:	af 89       	ldd	r26, Y+23	; 0x17
    34d0:	b8 8d       	ldd	r27, Y+24	; 0x18
    34d2:	bc 01       	movw	r22, r24
    34d4:	cd 01       	movw	r24, r26
    34d6:	4d db       	rcall	.-2406   	; 0x2b72 <findGCD>
    34d8:	dc 01       	movw	r26, r24
    34da:	cb 01       	movw	r24, r22
    34dc:	8d 8b       	std	Y+21, r24	; 0x15
    34de:	9e 8b       	std	Y+22, r25	; 0x16
    34e0:	af 8b       	std	Y+23, r26	; 0x17
    34e2:	b8 8f       	std	Y+24, r27	; 0x18
	tmpGCD = findGCD(tmpGCD, LCD_calc);
    34e4:	29 89       	ldd	r18, Y+17	; 0x11
    34e6:	3a 89       	ldd	r19, Y+18	; 0x12
    34e8:	4b 89       	ldd	r20, Y+19	; 0x13
    34ea:	5c 89       	ldd	r21, Y+20	; 0x14
    34ec:	8d 89       	ldd	r24, Y+21	; 0x15
    34ee:	9e 89       	ldd	r25, Y+22	; 0x16
    34f0:	af 89       	ldd	r26, Y+23	; 0x17
    34f2:	b8 8d       	ldd	r27, Y+24	; 0x18
    34f4:	bc 01       	movw	r22, r24
    34f6:	cd 01       	movw	r24, r26
    34f8:	3c db       	rcall	.-2440   	; 0x2b72 <findGCD>
    34fa:	dc 01       	movw	r26, r24
    34fc:	cb 01       	movw	r24, r22
    34fe:	8d 8b       	std	Y+21, r24	; 0x15
    3500:	9e 8b       	std	Y+22, r25	; 0x16
    3502:	af 8b       	std	Y+23, r26	; 0x17
    3504:	b8 8f       	std	Y+24, r27	; 0x18
	//tmpGCD = findGCD(tmpGCD, SMTick4_calc);

	//Greatest common divisor for all tasks or smallest time unit for tasks.
	unsigned long int GCD = tmpGCD;
    3506:	8d 89       	ldd	r24, Y+21	; 0x15
    3508:	9e 89       	ldd	r25, Y+22	; 0x16
    350a:	af 89       	ldd	r26, Y+23	; 0x17
    350c:	b8 8d       	ldd	r27, Y+24	; 0x18
    350e:	89 8f       	std	Y+25, r24	; 0x19
    3510:	9a 8f       	std	Y+26, r25	; 0x1a
    3512:	ab 8f       	std	Y+27, r26	; 0x1b
    3514:	bc 8f       	std	Y+28, r27	; 0x1c

	//Recalculate GCD periods for scheduler
	unsigned long int renderR_period = renderR_calc/GCD;
    3516:	8d 81       	ldd	r24, Y+5	; 0x05
    3518:	9e 81       	ldd	r25, Y+6	; 0x06
    351a:	af 81       	ldd	r26, Y+7	; 0x07
    351c:	b8 85       	ldd	r27, Y+8	; 0x08
    351e:	29 8d       	ldd	r18, Y+25	; 0x19
    3520:	3a 8d       	ldd	r19, Y+26	; 0x1a
    3522:	4b 8d       	ldd	r20, Y+27	; 0x1b
    3524:	5c 8d       	ldd	r21, Y+28	; 0x1c
    3526:	bc 01       	movw	r22, r24
    3528:	cd 01       	movw	r24, r26
    352a:	7a d1       	rcall	.+756    	; 0x3820 <__udivmodsi4>
    352c:	2d 8f       	std	Y+29, r18	; 0x1d
    352e:	3e 8f       	std	Y+30, r19	; 0x1e
    3530:	4f 8f       	std	Y+31, r20	; 0x1f
    3532:	58 a3       	std	Y+32, r21	; 0x20
	unsigned long int whip_period = whip_calc/GCD;
    3534:	89 85       	ldd	r24, Y+9	; 0x09
    3536:	9a 85       	ldd	r25, Y+10	; 0x0a
    3538:	ab 85       	ldd	r26, Y+11	; 0x0b
    353a:	bc 85       	ldd	r27, Y+12	; 0x0c
    353c:	29 8d       	ldd	r18, Y+25	; 0x19
    353e:	3a 8d       	ldd	r19, Y+26	; 0x1a
    3540:	4b 8d       	ldd	r20, Y+27	; 0x1b
    3542:	5c 8d       	ldd	r21, Y+28	; 0x1c
    3544:	bc 01       	movw	r22, r24
    3546:	cd 01       	movw	r24, r26
    3548:	6b d1       	rcall	.+726    	; 0x3820 <__udivmodsi4>
    354a:	29 a3       	std	Y+33, r18	; 0x21
    354c:	3a a3       	std	Y+34, r19	; 0x22
    354e:	4b a3       	std	Y+35, r20	; 0x23
    3550:	5c a3       	std	Y+36, r21	; 0x24
	unsigned long int control_period = control_calc/GCD;
    3552:	8d 85       	ldd	r24, Y+13	; 0x0d
    3554:	9e 85       	ldd	r25, Y+14	; 0x0e
    3556:	af 85       	ldd	r26, Y+15	; 0x0f
    3558:	b8 89       	ldd	r27, Y+16	; 0x10
    355a:	29 8d       	ldd	r18, Y+25	; 0x19
    355c:	3a 8d       	ldd	r19, Y+26	; 0x1a
    355e:	4b 8d       	ldd	r20, Y+27	; 0x1b
    3560:	5c 8d       	ldd	r21, Y+28	; 0x1c
    3562:	bc 01       	movw	r22, r24
    3564:	cd 01       	movw	r24, r26
    3566:	5c d1       	rcall	.+696    	; 0x3820 <__udivmodsi4>
    3568:	2d a3       	std	Y+37, r18	; 0x25
    356a:	3e a3       	std	Y+38, r19	; 0x26
    356c:	4f a3       	std	Y+39, r20	; 0x27
    356e:	58 a7       	std	Y+40, r21	; 0x28
	unsigned long int LCD_period = LCD_calc/GCD;
    3570:	89 89       	ldd	r24, Y+17	; 0x11
    3572:	9a 89       	ldd	r25, Y+18	; 0x12
    3574:	ab 89       	ldd	r26, Y+19	; 0x13
    3576:	bc 89       	ldd	r27, Y+20	; 0x14
    3578:	29 8d       	ldd	r18, Y+25	; 0x19
    357a:	3a 8d       	ldd	r19, Y+26	; 0x1a
    357c:	4b 8d       	ldd	r20, Y+27	; 0x1b
    357e:	5c 8d       	ldd	r21, Y+28	; 0x1c
    3580:	bc 01       	movw	r22, r24
    3582:	cd 01       	movw	r24, r26
    3584:	4d d1       	rcall	.+666    	; 0x3820 <__udivmodsi4>
    3586:	29 a7       	std	Y+41, r18	; 0x29
    3588:	3a a7       	std	Y+42, r19	; 0x2a
    358a:	4b a7       	std	Y+43, r20	; 0x2b
    358c:	5c a7       	std	Y+44, r21	; 0x2c

	//Declare an array of tasks
	//static task task1, task2, task3;// task2, task3, task4;
	//task *tasks[] = { &task1, &task2, &task3};//, &task2, &task3, &task4 };
	static task task1, task2, task3, task4;// task2, task3, task4;
	task *tasks[] = { &task1, &task2 , &task3 , &task4};//, &task2, &task3, &task4 };
    358e:	88 e0       	ldi	r24, 0x08	; 8
    3590:	eb e1       	ldi	r30, 0x1B	; 27
    3592:	f6 e0       	ldi	r31, 0x06	; 6
    3594:	de 01       	movw	r26, r28
    3596:	9f 96       	adiw	r26, 0x2f	; 47
    3598:	01 90       	ld	r0, Z+
    359a:	0d 92       	st	X+, r0
    359c:	8a 95       	dec	r24
    359e:	e1 f7       	brne	.-8      	; 0x3598 <main+0x1f2>
	const unsigned short numTasks = sizeof(tasks)/sizeof(task*);
    35a0:	84 e0       	ldi	r24, 0x04	; 4
    35a2:	90 e0       	ldi	r25, 0x00	; 0
    35a4:	9e a7       	std	Y+46, r25	; 0x2e
    35a6:	8d a7       	std	Y+45, r24	; 0x2d

	// Task 1
	task1.state = -1;//Task initial state.
    35a8:	8f ef       	ldi	r24, 0xFF	; 255
    35aa:	80 93 98 06 	sts	0x0698, r24
	task1.period = renderR_period;//Task Period.
    35ae:	8d 8d       	ldd	r24, Y+29	; 0x1d
    35b0:	9e 8d       	ldd	r25, Y+30	; 0x1e
    35b2:	af 8d       	ldd	r26, Y+31	; 0x1f
    35b4:	b8 a1       	ldd	r27, Y+32	; 0x20
    35b6:	80 93 99 06 	sts	0x0699, r24
    35ba:	90 93 9a 06 	sts	0x069A, r25
    35be:	a0 93 9b 06 	sts	0x069B, r26
    35c2:	b0 93 9c 06 	sts	0x069C, r27
	task1.elapsedTime = renderR_period;//Task current elapsed time.
    35c6:	8d 8d       	ldd	r24, Y+29	; 0x1d
    35c8:	9e 8d       	ldd	r25, Y+30	; 0x1e
    35ca:	af 8d       	ldd	r26, Y+31	; 0x1f
    35cc:	b8 a1       	ldd	r27, Y+32	; 0x20
    35ce:	80 93 9d 06 	sts	0x069D, r24
    35d2:	90 93 9e 06 	sts	0x069E, r25
    35d6:	a0 93 9f 06 	sts	0x069F, r26
    35da:	b0 93 a0 06 	sts	0x06A0, r27
	task1.TickFct = &render_SM;//Function pointer for the tick.
    35de:	80 ea       	ldi	r24, 0xA0	; 160
    35e0:	96 e1       	ldi	r25, 0x16	; 22
    35e2:	90 93 a2 06 	sts	0x06A2, r25
    35e6:	80 93 a1 06 	sts	0x06A1, r24
	
	
	// Task 2
	
	task2.state = -1;//Task initial state.
    35ea:	8f ef       	ldi	r24, 0xFF	; 255
    35ec:	80 93 a3 06 	sts	0x06A3, r24
	task2.period = whip_period;//Task Period.
    35f0:	89 a1       	ldd	r24, Y+33	; 0x21
    35f2:	9a a1       	ldd	r25, Y+34	; 0x22
    35f4:	ab a1       	ldd	r26, Y+35	; 0x23
    35f6:	bc a1       	ldd	r27, Y+36	; 0x24
    35f8:	80 93 a4 06 	sts	0x06A4, r24
    35fc:	90 93 a5 06 	sts	0x06A5, r25
    3600:	a0 93 a6 06 	sts	0x06A6, r26
    3604:	b0 93 a7 06 	sts	0x06A7, r27
	task2.elapsedTime = whip_period;//Task current elapsed time.
    3608:	89 a1       	ldd	r24, Y+33	; 0x21
    360a:	9a a1       	ldd	r25, Y+34	; 0x22
    360c:	ab a1       	ldd	r26, Y+35	; 0x23
    360e:	bc a1       	ldd	r27, Y+36	; 0x24
    3610:	80 93 a8 06 	sts	0x06A8, r24
    3614:	90 93 a9 06 	sts	0x06A9, r25
    3618:	a0 93 aa 06 	sts	0x06AA, r26
    361c:	b0 93 ab 06 	sts	0x06AB, r27
	task2.TickFct = &whip_delay_SM;//Function pointer for the tick.
    3620:	84 e7       	ldi	r24, 0x74	; 116
    3622:	99 e1       	ldi	r25, 0x19	; 25
    3624:	90 93 ad 06 	sts	0x06AD, r25
    3628:	80 93 ac 06 	sts	0x06AC, r24
	
	// Task 3
	task3.state = -1;//Task initial state.
    362c:	8f ef       	ldi	r24, 0xFF	; 255
    362e:	80 93 ae 06 	sts	0x06AE, r24
	task3.period = control_period;//Task Period.
    3632:	8d a1       	ldd	r24, Y+37	; 0x25
    3634:	9e a1       	ldd	r25, Y+38	; 0x26
    3636:	af a1       	ldd	r26, Y+39	; 0x27
    3638:	b8 a5       	ldd	r27, Y+40	; 0x28
    363a:	80 93 af 06 	sts	0x06AF, r24
    363e:	90 93 b0 06 	sts	0x06B0, r25
    3642:	a0 93 b1 06 	sts	0x06B1, r26
    3646:	b0 93 b2 06 	sts	0x06B2, r27
	task3.elapsedTime = control_period;//Task current elapsed time.
    364a:	8d a1       	ldd	r24, Y+37	; 0x25
    364c:	9e a1       	ldd	r25, Y+38	; 0x26
    364e:	af a1       	ldd	r26, Y+39	; 0x27
    3650:	b8 a5       	ldd	r27, Y+40	; 0x28
    3652:	80 93 b3 06 	sts	0x06B3, r24
    3656:	90 93 b4 06 	sts	0x06B4, r25
    365a:	a0 93 b5 06 	sts	0x06B5, r26
    365e:	b0 93 b6 06 	sts	0x06B6, r27
	task3.TickFct = &control_SM;//Function pointer for the tick.
    3662:	80 e6       	ldi	r24, 0x60	; 96
    3664:	97 e1       	ldi	r25, 0x17	; 23
    3666:	90 93 b8 06 	sts	0x06B8, r25
    366a:	80 93 b7 06 	sts	0x06B7, r24
	//task3.period = SMTick3_period;//Task Period.
	//task3.elapsedTime = SMTick3_period; // Task current elasped time.
	//task3.TickFct = &SMTick3; // Function pointer for the tick.

	// Task 4
	task4.state = -1;//Task initial state.
    366e:	8f ef       	ldi	r24, 0xFF	; 255
    3670:	80 93 b9 06 	sts	0x06B9, r24
	task4.period = LCD_period;//Task Period.
    3674:	89 a5       	ldd	r24, Y+41	; 0x29
    3676:	9a a5       	ldd	r25, Y+42	; 0x2a
    3678:	ab a5       	ldd	r26, Y+43	; 0x2b
    367a:	bc a5       	ldd	r27, Y+44	; 0x2c
    367c:	80 93 ba 06 	sts	0x06BA, r24
    3680:	90 93 bb 06 	sts	0x06BB, r25
    3684:	a0 93 bc 06 	sts	0x06BC, r26
    3688:	b0 93 bd 06 	sts	0x06BD, r27
	task4.elapsedTime = LCD_period; // Task current elasped time.
    368c:	89 a5       	ldd	r24, Y+41	; 0x29
    368e:	9a a5       	ldd	r25, Y+42	; 0x2a
    3690:	ab a5       	ldd	r26, Y+43	; 0x2b
    3692:	bc a5       	ldd	r27, Y+44	; 0x2c
    3694:	80 93 be 06 	sts	0x06BE, r24
    3698:	90 93 bf 06 	sts	0x06BF, r25
    369c:	a0 93 c0 06 	sts	0x06C0, r26
    36a0:	b0 93 c1 06 	sts	0x06C1, r27
	task4.TickFct = &LCD_sm; // Function pointer for the tick.
    36a4:	8b e9       	ldi	r24, 0x9B	; 155
    36a6:	99 e1       	ldi	r25, 0x19	; 25
    36a8:	90 93 c3 06 	sts	0x06C3, r25
    36ac:	80 93 c2 06 	sts	0x06C2, r24

	// Set the timer and turn it on
	TimerSet(GCD);
    36b0:	89 8d       	ldd	r24, Y+25	; 0x19
    36b2:	9a 8d       	ldd	r25, Y+26	; 0x1a
    36b4:	ab 8d       	ldd	r26, Y+27	; 0x1b
    36b6:	bc 8d       	ldd	r27, Y+28	; 0x1c
    36b8:	bc 01       	movw	r22, r24
    36ba:	cd 01       	movw	r24, r26
    36bc:	0e 94 78 01 	call	0x2f0	; 0x2f0 <TimerSet>
	TimerOn();
    36c0:	0e 94 a5 01 	call	0x34a	; 0x34a <TimerOn>

	unsigned short i; // Scheduler for-loop iterator
	while(1) {
		// Scheduler code
		for ( i = 0; i < numTasks; i++ ) {
    36c4:	1a 82       	std	Y+2, r1	; 0x02
    36c6:	19 82       	std	Y+1, r1	; 0x01
    36c8:	9b c0       	rjmp	.+310    	; 0x3800 <main+0x45a>
			// Task is ready to tick
			if ( tasks[i]->elapsedTime == tasks[i]->period ) {
    36ca:	89 81       	ldd	r24, Y+1	; 0x01
    36cc:	9a 81       	ldd	r25, Y+2	; 0x02
    36ce:	88 0f       	add	r24, r24
    36d0:	99 1f       	adc	r25, r25
    36d2:	9e 01       	movw	r18, r28
    36d4:	2f 5f       	subi	r18, 0xFF	; 255
    36d6:	3f 4f       	sbci	r19, 0xFF	; 255
    36d8:	82 0f       	add	r24, r18
    36da:	93 1f       	adc	r25, r19
    36dc:	8e 96       	adiw	r24, 0x2e	; 46
    36de:	fc 01       	movw	r30, r24
    36e0:	80 81       	ld	r24, Z
    36e2:	91 81       	ldd	r25, Z+1	; 0x01
    36e4:	fc 01       	movw	r30, r24
    36e6:	25 81       	ldd	r18, Z+5	; 0x05
    36e8:	36 81       	ldd	r19, Z+6	; 0x06
    36ea:	47 81       	ldd	r20, Z+7	; 0x07
    36ec:	50 85       	ldd	r21, Z+8	; 0x08
    36ee:	89 81       	ldd	r24, Y+1	; 0x01
    36f0:	9a 81       	ldd	r25, Y+2	; 0x02
    36f2:	88 0f       	add	r24, r24
    36f4:	99 1f       	adc	r25, r25
    36f6:	be 01       	movw	r22, r28
    36f8:	6f 5f       	subi	r22, 0xFF	; 255
    36fa:	7f 4f       	sbci	r23, 0xFF	; 255
    36fc:	86 0f       	add	r24, r22
    36fe:	97 1f       	adc	r25, r23
    3700:	8e 96       	adiw	r24, 0x2e	; 46
    3702:	fc 01       	movw	r30, r24
    3704:	80 81       	ld	r24, Z
    3706:	91 81       	ldd	r25, Z+1	; 0x01
    3708:	fc 01       	movw	r30, r24
    370a:	81 81       	ldd	r24, Z+1	; 0x01
    370c:	92 81       	ldd	r25, Z+2	; 0x02
    370e:	a3 81       	ldd	r26, Z+3	; 0x03
    3710:	b4 81       	ldd	r27, Z+4	; 0x04
    3712:	28 17       	cp	r18, r24
    3714:	39 07       	cpc	r19, r25
    3716:	4a 07       	cpc	r20, r26
    3718:	5b 07       	cpc	r21, r27
    371a:	09 f0       	breq	.+2      	; 0x371e <main+0x378>
    371c:	45 c0       	rjmp	.+138    	; 0x37a8 <main+0x402>
				// Setting next state for task
				tasks[i]->state = tasks[i]->TickFct(tasks[i]->state);
    371e:	89 81       	ldd	r24, Y+1	; 0x01
    3720:	9a 81       	ldd	r25, Y+2	; 0x02
    3722:	88 0f       	add	r24, r24
    3724:	99 1f       	adc	r25, r25
    3726:	9e 01       	movw	r18, r28
    3728:	2f 5f       	subi	r18, 0xFF	; 255
    372a:	3f 4f       	sbci	r19, 0xFF	; 255
    372c:	82 0f       	add	r24, r18
    372e:	93 1f       	adc	r25, r19
    3730:	8e 96       	adiw	r24, 0x2e	; 46
    3732:	fc 01       	movw	r30, r24
    3734:	00 81       	ld	r16, Z
    3736:	11 81       	ldd	r17, Z+1	; 0x01
    3738:	89 81       	ldd	r24, Y+1	; 0x01
    373a:	9a 81       	ldd	r25, Y+2	; 0x02
    373c:	88 0f       	add	r24, r24
    373e:	99 1f       	adc	r25, r25
    3740:	9e 01       	movw	r18, r28
    3742:	2f 5f       	subi	r18, 0xFF	; 255
    3744:	3f 4f       	sbci	r19, 0xFF	; 255
    3746:	82 0f       	add	r24, r18
    3748:	93 1f       	adc	r25, r19
    374a:	8e 96       	adiw	r24, 0x2e	; 46
    374c:	fc 01       	movw	r30, r24
    374e:	80 81       	ld	r24, Z
    3750:	91 81       	ldd	r25, Z+1	; 0x01
    3752:	fc 01       	movw	r30, r24
    3754:	21 85       	ldd	r18, Z+9	; 0x09
    3756:	32 85       	ldd	r19, Z+10	; 0x0a
    3758:	89 81       	ldd	r24, Y+1	; 0x01
    375a:	9a 81       	ldd	r25, Y+2	; 0x02
    375c:	88 0f       	add	r24, r24
    375e:	99 1f       	adc	r25, r25
    3760:	ae 01       	movw	r20, r28
    3762:	4f 5f       	subi	r20, 0xFF	; 255
    3764:	5f 4f       	sbci	r21, 0xFF	; 255
    3766:	84 0f       	add	r24, r20
    3768:	95 1f       	adc	r25, r21
    376a:	8e 96       	adiw	r24, 0x2e	; 46
    376c:	fc 01       	movw	r30, r24
    376e:	80 81       	ld	r24, Z
    3770:	91 81       	ldd	r25, Z+1	; 0x01
    3772:	fc 01       	movw	r30, r24
    3774:	80 81       	ld	r24, Z
    3776:	99 27       	eor	r25, r25
    3778:	87 fd       	sbrc	r24, 7
    377a:	90 95       	com	r25
    377c:	f9 01       	movw	r30, r18
    377e:	09 95       	icall
    3780:	f8 01       	movw	r30, r16
    3782:	80 83       	st	Z, r24
				// Reset the elapsed time for next tick.
				tasks[i]->elapsedTime = 0;
    3784:	89 81       	ldd	r24, Y+1	; 0x01
    3786:	9a 81       	ldd	r25, Y+2	; 0x02
    3788:	88 0f       	add	r24, r24
    378a:	99 1f       	adc	r25, r25
    378c:	9e 01       	movw	r18, r28
    378e:	2f 5f       	subi	r18, 0xFF	; 255
    3790:	3f 4f       	sbci	r19, 0xFF	; 255
    3792:	82 0f       	add	r24, r18
    3794:	93 1f       	adc	r25, r19
    3796:	8e 96       	adiw	r24, 0x2e	; 46
    3798:	fc 01       	movw	r30, r24
    379a:	80 81       	ld	r24, Z
    379c:	91 81       	ldd	r25, Z+1	; 0x01
    379e:	fc 01       	movw	r30, r24
    37a0:	15 82       	std	Z+5, r1	; 0x05
    37a2:	16 82       	std	Z+6, r1	; 0x06
    37a4:	17 82       	std	Z+7, r1	; 0x07
    37a6:	10 86       	std	Z+8, r1	; 0x08
			}
			tasks[i]->elapsedTime += 1;
    37a8:	89 81       	ldd	r24, Y+1	; 0x01
    37aa:	9a 81       	ldd	r25, Y+2	; 0x02
    37ac:	88 0f       	add	r24, r24
    37ae:	99 1f       	adc	r25, r25
    37b0:	9e 01       	movw	r18, r28
    37b2:	2f 5f       	subi	r18, 0xFF	; 255
    37b4:	3f 4f       	sbci	r19, 0xFF	; 255
    37b6:	82 0f       	add	r24, r18
    37b8:	93 1f       	adc	r25, r19
    37ba:	8e 96       	adiw	r24, 0x2e	; 46
    37bc:	fc 01       	movw	r30, r24
    37be:	20 81       	ld	r18, Z
    37c0:	31 81       	ldd	r19, Z+1	; 0x01
    37c2:	89 81       	ldd	r24, Y+1	; 0x01
    37c4:	9a 81       	ldd	r25, Y+2	; 0x02
    37c6:	88 0f       	add	r24, r24
    37c8:	99 1f       	adc	r25, r25
    37ca:	ae 01       	movw	r20, r28
    37cc:	4f 5f       	subi	r20, 0xFF	; 255
    37ce:	5f 4f       	sbci	r21, 0xFF	; 255
    37d0:	84 0f       	add	r24, r20
    37d2:	95 1f       	adc	r25, r21
    37d4:	8e 96       	adiw	r24, 0x2e	; 46
    37d6:	fc 01       	movw	r30, r24
    37d8:	80 81       	ld	r24, Z
    37da:	91 81       	ldd	r25, Z+1	; 0x01
    37dc:	fc 01       	movw	r30, r24
    37de:	85 81       	ldd	r24, Z+5	; 0x05
    37e0:	96 81       	ldd	r25, Z+6	; 0x06
    37e2:	a7 81       	ldd	r26, Z+7	; 0x07
    37e4:	b0 85       	ldd	r27, Z+8	; 0x08
    37e6:	01 96       	adiw	r24, 0x01	; 1
    37e8:	a1 1d       	adc	r26, r1
    37ea:	b1 1d       	adc	r27, r1
    37ec:	f9 01       	movw	r30, r18
    37ee:	85 83       	std	Z+5, r24	; 0x05
    37f0:	96 83       	std	Z+6, r25	; 0x06
    37f2:	a7 83       	std	Z+7, r26	; 0x07
    37f4:	b0 87       	std	Z+8, r27	; 0x08
	TimerOn();

	unsigned short i; // Scheduler for-loop iterator
	while(1) {
		// Scheduler code
		for ( i = 0; i < numTasks; i++ ) {
    37f6:	89 81       	ldd	r24, Y+1	; 0x01
    37f8:	9a 81       	ldd	r25, Y+2	; 0x02
    37fa:	01 96       	adiw	r24, 0x01	; 1
    37fc:	9a 83       	std	Y+2, r25	; 0x02
    37fe:	89 83       	std	Y+1, r24	; 0x01
    3800:	29 81       	ldd	r18, Y+1	; 0x01
    3802:	3a 81       	ldd	r19, Y+2	; 0x02
    3804:	8d a5       	ldd	r24, Y+45	; 0x2d
    3806:	9e a5       	ldd	r25, Y+46	; 0x2e
    3808:	28 17       	cp	r18, r24
    380a:	39 07       	cpc	r19, r25
    380c:	08 f4       	brcc	.+2      	; 0x3810 <main+0x46a>
    380e:	5d cf       	rjmp	.-326    	; 0x36ca <main+0x324>
				// Reset the elapsed time for next tick.
				tasks[i]->elapsedTime = 0;
			}
			tasks[i]->elapsedTime += 1;
		}
		while(!TimerFlag);
    3810:	00 00       	nop
    3812:	80 91 24 06 	lds	r24, 0x0624
    3816:	88 23       	and	r24, r24
    3818:	e1 f3       	breq	.-8      	; 0x3812 <main+0x46c>
		TimerFlag = 0;
    381a:	10 92 24 06 	sts	0x0624, r1
	}
    381e:	52 cf       	rjmp	.-348    	; 0x36c4 <main+0x31e>

00003820 <__udivmodsi4>:
    3820:	a1 e2       	ldi	r26, 0x21	; 33
    3822:	1a 2e       	mov	r1, r26
    3824:	aa 1b       	sub	r26, r26
    3826:	bb 1b       	sub	r27, r27
    3828:	fd 01       	movw	r30, r26
    382a:	0d c0       	rjmp	.+26     	; 0x3846 <__udivmodsi4_ep>

0000382c <__udivmodsi4_loop>:
    382c:	aa 1f       	adc	r26, r26
    382e:	bb 1f       	adc	r27, r27
    3830:	ee 1f       	adc	r30, r30
    3832:	ff 1f       	adc	r31, r31
    3834:	a2 17       	cp	r26, r18
    3836:	b3 07       	cpc	r27, r19
    3838:	e4 07       	cpc	r30, r20
    383a:	f5 07       	cpc	r31, r21
    383c:	20 f0       	brcs	.+8      	; 0x3846 <__udivmodsi4_ep>
    383e:	a2 1b       	sub	r26, r18
    3840:	b3 0b       	sbc	r27, r19
    3842:	e4 0b       	sbc	r30, r20
    3844:	f5 0b       	sbc	r31, r21

00003846 <__udivmodsi4_ep>:
    3846:	66 1f       	adc	r22, r22
    3848:	77 1f       	adc	r23, r23
    384a:	88 1f       	adc	r24, r24
    384c:	99 1f       	adc	r25, r25
    384e:	1a 94       	dec	r1
    3850:	69 f7       	brne	.-38     	; 0x382c <__udivmodsi4_loop>
    3852:	60 95       	com	r22
    3854:	70 95       	com	r23
    3856:	80 95       	com	r24
    3858:	90 95       	com	r25
    385a:	9b 01       	movw	r18, r22
    385c:	ac 01       	movw	r20, r24
    385e:	bd 01       	movw	r22, r26
    3860:	cf 01       	movw	r24, r30
    3862:	08 95       	ret

00003864 <__tablejump2__>:
    3864:	ee 0f       	add	r30, r30
    3866:	ff 1f       	adc	r31, r31

00003868 <__tablejump__>:
    3868:	05 90       	lpm	r0, Z+
    386a:	f4 91       	lpm	r31, Z
    386c:	e0 2d       	mov	r30, r0
    386e:	09 94       	ijmp

00003870 <_exit>:
    3870:	f8 94       	cli

00003872 <__stop_program>:
    3872:	ff cf       	rjmp	.-2      	; 0x3872 <__stop_program>
